
stm32f401Drivers.elf:     file format elf32-littlearm

Sections:
Idx Name          Size      VMA       LMA       File off  Algn
  0 .isr_vector   00000194  08000000  08000000  00010000  2**0
                  CONTENTS, ALLOC, LOAD, READONLY, DATA
  1 .text         00001b88  08000198  08000198  00010198  2**3
                  CONTENTS, ALLOC, LOAD, READONLY, CODE
  2 .rodata       00000054  08001d20  08001d20  00011d20  2**2
                  CONTENTS, ALLOC, LOAD, READONLY, DATA
  3 .ARM.extab    00000000  08001d74  08001d74  00020064  2**0
                  CONTENTS
  4 .ARM          00000008  08001d74  08001d74  00011d74  2**2
                  CONTENTS, ALLOC, LOAD, READONLY, DATA
  5 .preinit_array 00000000  08001d7c  08001d7c  00020064  2**0
                  CONTENTS, ALLOC, LOAD, DATA
  6 .init_array   00000004  08001d7c  08001d7c  00011d7c  2**2
                  CONTENTS, ALLOC, LOAD, DATA
  7 .fini_array   00000004  08001d80  08001d80  00011d80  2**2
                  CONTENTS, ALLOC, LOAD, DATA
  8 .data         00000064  20000000  08001d84  00020000  2**2
                  CONTENTS, ALLOC, LOAD, DATA
  9 .bss          000000c8  20000064  08001de8  00020064  2**2
                  ALLOC
 10 ._user_heap_stack 00000604  2000012c  08001de8  0002012c  2**0
                  ALLOC
 11 .ARM.attributes 00000030  00000000  00000000  00020064  2**0
                  CONTENTS, READONLY
 12 .comment      00000043  00000000  00000000  00020094  2**0
                  CONTENTS, READONLY
 13 .debug_info   0000379c  00000000  00000000  000200d7  2**0
                  CONTENTS, READONLY, DEBUGGING, OCTETS
 14 .debug_abbrev 0000114e  00000000  00000000  00023873  2**0
                  CONTENTS, READONLY, DEBUGGING, OCTETS
 15 .debug_aranges 000003c8  00000000  00000000  000249c8  2**3
                  CONTENTS, READONLY, DEBUGGING, OCTETS
 16 .debug_rnglists 0000027a  00000000  00000000  00024d90  2**0
                  CONTENTS, READONLY, DEBUGGING, OCTETS
 17 .debug_macro  00000a0a  00000000  00000000  0002500a  2**0
                  CONTENTS, READONLY, DEBUGGING, OCTETS
 18 .debug_line   000020b8  00000000  00000000  00025a14  2**0
                  CONTENTS, READONLY, DEBUGGING, OCTETS
 19 .debug_str    00006991  00000000  00000000  00027acc  2**0
                  CONTENTS, READONLY, DEBUGGING, OCTETS
 20 .debug_frame  00000bc8  00000000  00000000  0002e460  2**2
                  CONTENTS, READONLY, DEBUGGING, OCTETS
 21 .debug_line_str 0000005e  00000000  00000000  0002f028  2**0
                  CONTENTS, READONLY, DEBUGGING, OCTETS

Disassembly of section .text:

08000198 <__do_global_dtors_aux>:
 8000198:	b510      	push	{r4, lr}
 800019a:	4c05      	ldr	r4, [pc, #20]	; (80001b0 <__do_global_dtors_aux+0x18>)
 800019c:	7823      	ldrb	r3, [r4, #0]
 800019e:	b933      	cbnz	r3, 80001ae <__do_global_dtors_aux+0x16>
 80001a0:	4b04      	ldr	r3, [pc, #16]	; (80001b4 <__do_global_dtors_aux+0x1c>)
 80001a2:	b113      	cbz	r3, 80001aa <__do_global_dtors_aux+0x12>
 80001a4:	4804      	ldr	r0, [pc, #16]	; (80001b8 <__do_global_dtors_aux+0x20>)
 80001a6:	f3af 8000 	nop.w
 80001aa:	2301      	movs	r3, #1
 80001ac:	7023      	strb	r3, [r4, #0]
 80001ae:	bd10      	pop	{r4, pc}
 80001b0:	20000064 	.word	0x20000064
 80001b4:	00000000 	.word	0x00000000
 80001b8:	08001d08 	.word	0x08001d08

080001bc <frame_dummy>:
 80001bc:	b508      	push	{r3, lr}
 80001be:	4b03      	ldr	r3, [pc, #12]	; (80001cc <frame_dummy+0x10>)
 80001c0:	b11b      	cbz	r3, 80001ca <frame_dummy+0xe>
 80001c2:	4903      	ldr	r1, [pc, #12]	; (80001d0 <frame_dummy+0x14>)
 80001c4:	4803      	ldr	r0, [pc, #12]	; (80001d4 <frame_dummy+0x18>)
 80001c6:	f3af 8000 	nop.w
 80001ca:	bd08      	pop	{r3, pc}
 80001cc:	00000000 	.word	0x00000000
 80001d0:	20000068 	.word	0x20000068
 80001d4:	08001d08 	.word	0x08001d08

080001d8 <__aeabi_uldivmod>:
 80001d8:	b953      	cbnz	r3, 80001f0 <__aeabi_uldivmod+0x18>
 80001da:	b94a      	cbnz	r2, 80001f0 <__aeabi_uldivmod+0x18>
 80001dc:	2900      	cmp	r1, #0
 80001de:	bf08      	it	eq
 80001e0:	2800      	cmpeq	r0, #0
 80001e2:	bf1c      	itt	ne
 80001e4:	f04f 31ff 	movne.w	r1, #4294967295
 80001e8:	f04f 30ff 	movne.w	r0, #4294967295
 80001ec:	f000 b970 	b.w	80004d0 <__aeabi_idiv0>
 80001f0:	f1ad 0c08 	sub.w	ip, sp, #8
 80001f4:	e96d ce04 	strd	ip, lr, [sp, #-16]!
 80001f8:	f000 f806 	bl	8000208 <__udivmoddi4>
 80001fc:	f8dd e004 	ldr.w	lr, [sp, #4]
 8000200:	e9dd 2302 	ldrd	r2, r3, [sp, #8]
 8000204:	b004      	add	sp, #16
 8000206:	4770      	bx	lr

08000208 <__udivmoddi4>:
 8000208:	e92d 47f0 	stmdb	sp!, {r4, r5, r6, r7, r8, r9, sl, lr}
 800020c:	9e08      	ldr	r6, [sp, #32]
 800020e:	460d      	mov	r5, r1
 8000210:	4604      	mov	r4, r0
 8000212:	460f      	mov	r7, r1
 8000214:	2b00      	cmp	r3, #0
 8000216:	d14a      	bne.n	80002ae <__udivmoddi4+0xa6>
 8000218:	428a      	cmp	r2, r1
 800021a:	4694      	mov	ip, r2
 800021c:	d965      	bls.n	80002ea <__udivmoddi4+0xe2>
 800021e:	fab2 f382 	clz	r3, r2
 8000222:	b143      	cbz	r3, 8000236 <__udivmoddi4+0x2e>
 8000224:	fa02 fc03 	lsl.w	ip, r2, r3
 8000228:	f1c3 0220 	rsb	r2, r3, #32
 800022c:	409f      	lsls	r7, r3
 800022e:	fa20 f202 	lsr.w	r2, r0, r2
 8000232:	4317      	orrs	r7, r2
 8000234:	409c      	lsls	r4, r3
 8000236:	ea4f 4e1c 	mov.w	lr, ip, lsr #16
 800023a:	fa1f f58c 	uxth.w	r5, ip
 800023e:	fbb7 f1fe 	udiv	r1, r7, lr
 8000242:	0c22      	lsrs	r2, r4, #16
 8000244:	fb0e 7711 	mls	r7, lr, r1, r7
 8000248:	ea42 4207 	orr.w	r2, r2, r7, lsl #16
 800024c:	fb01 f005 	mul.w	r0, r1, r5
 8000250:	4290      	cmp	r0, r2
 8000252:	d90a      	bls.n	800026a <__udivmoddi4+0x62>
 8000254:	eb1c 0202 	adds.w	r2, ip, r2
 8000258:	f101 37ff 	add.w	r7, r1, #4294967295
 800025c:	f080 811c 	bcs.w	8000498 <__udivmoddi4+0x290>
 8000260:	4290      	cmp	r0, r2
 8000262:	f240 8119 	bls.w	8000498 <__udivmoddi4+0x290>
 8000266:	3902      	subs	r1, #2
 8000268:	4462      	add	r2, ip
 800026a:	1a12      	subs	r2, r2, r0
 800026c:	b2a4      	uxth	r4, r4
 800026e:	fbb2 f0fe 	udiv	r0, r2, lr
 8000272:	fb0e 2210 	mls	r2, lr, r0, r2
 8000276:	ea44 4402 	orr.w	r4, r4, r2, lsl #16
 800027a:	fb00 f505 	mul.w	r5, r0, r5
 800027e:	42a5      	cmp	r5, r4
 8000280:	d90a      	bls.n	8000298 <__udivmoddi4+0x90>
 8000282:	eb1c 0404 	adds.w	r4, ip, r4
 8000286:	f100 32ff 	add.w	r2, r0, #4294967295
 800028a:	f080 8107 	bcs.w	800049c <__udivmoddi4+0x294>
 800028e:	42a5      	cmp	r5, r4
 8000290:	f240 8104 	bls.w	800049c <__udivmoddi4+0x294>
 8000294:	4464      	add	r4, ip
 8000296:	3802      	subs	r0, #2
 8000298:	ea40 4001 	orr.w	r0, r0, r1, lsl #16
 800029c:	1b64      	subs	r4, r4, r5
 800029e:	2100      	movs	r1, #0
 80002a0:	b11e      	cbz	r6, 80002aa <__udivmoddi4+0xa2>
 80002a2:	40dc      	lsrs	r4, r3
 80002a4:	2300      	movs	r3, #0
 80002a6:	e9c6 4300 	strd	r4, r3, [r6]
 80002aa:	e8bd 87f0 	ldmia.w	sp!, {r4, r5, r6, r7, r8, r9, sl, pc}
 80002ae:	428b      	cmp	r3, r1
 80002b0:	d908      	bls.n	80002c4 <__udivmoddi4+0xbc>
 80002b2:	2e00      	cmp	r6, #0
 80002b4:	f000 80ed 	beq.w	8000492 <__udivmoddi4+0x28a>
 80002b8:	2100      	movs	r1, #0
 80002ba:	e9c6 0500 	strd	r0, r5, [r6]
 80002be:	4608      	mov	r0, r1
 80002c0:	e8bd 87f0 	ldmia.w	sp!, {r4, r5, r6, r7, r8, r9, sl, pc}
 80002c4:	fab3 f183 	clz	r1, r3
 80002c8:	2900      	cmp	r1, #0
 80002ca:	d149      	bne.n	8000360 <__udivmoddi4+0x158>
 80002cc:	42ab      	cmp	r3, r5
 80002ce:	d302      	bcc.n	80002d6 <__udivmoddi4+0xce>
 80002d0:	4282      	cmp	r2, r0
 80002d2:	f200 80f8 	bhi.w	80004c6 <__udivmoddi4+0x2be>
 80002d6:	1a84      	subs	r4, r0, r2
 80002d8:	eb65 0203 	sbc.w	r2, r5, r3
 80002dc:	2001      	movs	r0, #1
 80002de:	4617      	mov	r7, r2
 80002e0:	2e00      	cmp	r6, #0
 80002e2:	d0e2      	beq.n	80002aa <__udivmoddi4+0xa2>
 80002e4:	e9c6 4700 	strd	r4, r7, [r6]
 80002e8:	e7df      	b.n	80002aa <__udivmoddi4+0xa2>
 80002ea:	b902      	cbnz	r2, 80002ee <__udivmoddi4+0xe6>
 80002ec:	deff      	udf	#255	; 0xff
 80002ee:	fab2 f382 	clz	r3, r2
 80002f2:	2b00      	cmp	r3, #0
 80002f4:	f040 8090 	bne.w	8000418 <__udivmoddi4+0x210>
 80002f8:	1a8a      	subs	r2, r1, r2
 80002fa:	ea4f 471c 	mov.w	r7, ip, lsr #16
 80002fe:	fa1f fe8c 	uxth.w	lr, ip
 8000302:	2101      	movs	r1, #1
 8000304:	fbb2 f5f7 	udiv	r5, r2, r7
 8000308:	fb07 2015 	mls	r0, r7, r5, r2
 800030c:	0c22      	lsrs	r2, r4, #16
 800030e:	ea42 4200 	orr.w	r2, r2, r0, lsl #16
 8000312:	fb0e f005 	mul.w	r0, lr, r5
 8000316:	4290      	cmp	r0, r2
 8000318:	d908      	bls.n	800032c <__udivmoddi4+0x124>
 800031a:	eb1c 0202 	adds.w	r2, ip, r2
 800031e:	f105 38ff 	add.w	r8, r5, #4294967295
 8000322:	d202      	bcs.n	800032a <__udivmoddi4+0x122>
 8000324:	4290      	cmp	r0, r2
 8000326:	f200 80cb 	bhi.w	80004c0 <__udivmoddi4+0x2b8>
 800032a:	4645      	mov	r5, r8
 800032c:	1a12      	subs	r2, r2, r0
 800032e:	b2a4      	uxth	r4, r4
 8000330:	fbb2 f0f7 	udiv	r0, r2, r7
 8000334:	fb07 2210 	mls	r2, r7, r0, r2
 8000338:	ea44 4402 	orr.w	r4, r4, r2, lsl #16
 800033c:	fb0e fe00 	mul.w	lr, lr, r0
 8000340:	45a6      	cmp	lr, r4
 8000342:	d908      	bls.n	8000356 <__udivmoddi4+0x14e>
 8000344:	eb1c 0404 	adds.w	r4, ip, r4
 8000348:	f100 32ff 	add.w	r2, r0, #4294967295
 800034c:	d202      	bcs.n	8000354 <__udivmoddi4+0x14c>
 800034e:	45a6      	cmp	lr, r4
 8000350:	f200 80bb 	bhi.w	80004ca <__udivmoddi4+0x2c2>
 8000354:	4610      	mov	r0, r2
 8000356:	eba4 040e 	sub.w	r4, r4, lr
 800035a:	ea40 4005 	orr.w	r0, r0, r5, lsl #16
 800035e:	e79f      	b.n	80002a0 <__udivmoddi4+0x98>
 8000360:	f1c1 0720 	rsb	r7, r1, #32
 8000364:	408b      	lsls	r3, r1
 8000366:	fa22 fc07 	lsr.w	ip, r2, r7
 800036a:	ea4c 0c03 	orr.w	ip, ip, r3
 800036e:	fa05 f401 	lsl.w	r4, r5, r1
 8000372:	fa20 f307 	lsr.w	r3, r0, r7
 8000376:	40fd      	lsrs	r5, r7
 8000378:	ea4f 491c 	mov.w	r9, ip, lsr #16
 800037c:	4323      	orrs	r3, r4
 800037e:	fbb5 f8f9 	udiv	r8, r5, r9
 8000382:	fa1f fe8c 	uxth.w	lr, ip
 8000386:	fb09 5518 	mls	r5, r9, r8, r5
 800038a:	0c1c      	lsrs	r4, r3, #16
 800038c:	ea44 4405 	orr.w	r4, r4, r5, lsl #16
 8000390:	fb08 f50e 	mul.w	r5, r8, lr
 8000394:	42a5      	cmp	r5, r4
 8000396:	fa02 f201 	lsl.w	r2, r2, r1
 800039a:	fa00 f001 	lsl.w	r0, r0, r1
 800039e:	d90b      	bls.n	80003b8 <__udivmoddi4+0x1b0>
 80003a0:	eb1c 0404 	adds.w	r4, ip, r4
 80003a4:	f108 3aff 	add.w	sl, r8, #4294967295
 80003a8:	f080 8088 	bcs.w	80004bc <__udivmoddi4+0x2b4>
 80003ac:	42a5      	cmp	r5, r4
 80003ae:	f240 8085 	bls.w	80004bc <__udivmoddi4+0x2b4>
 80003b2:	f1a8 0802 	sub.w	r8, r8, #2
 80003b6:	4464      	add	r4, ip
 80003b8:	1b64      	subs	r4, r4, r5
 80003ba:	b29d      	uxth	r5, r3
 80003bc:	fbb4 f3f9 	udiv	r3, r4, r9
 80003c0:	fb09 4413 	mls	r4, r9, r3, r4
 80003c4:	ea45 4404 	orr.w	r4, r5, r4, lsl #16
 80003c8:	fb03 fe0e 	mul.w	lr, r3, lr
 80003cc:	45a6      	cmp	lr, r4
 80003ce:	d908      	bls.n	80003e2 <__udivmoddi4+0x1da>
 80003d0:	eb1c 0404 	adds.w	r4, ip, r4
 80003d4:	f103 35ff 	add.w	r5, r3, #4294967295
 80003d8:	d26c      	bcs.n	80004b4 <__udivmoddi4+0x2ac>
 80003da:	45a6      	cmp	lr, r4
 80003dc:	d96a      	bls.n	80004b4 <__udivmoddi4+0x2ac>
 80003de:	3b02      	subs	r3, #2
 80003e0:	4464      	add	r4, ip
 80003e2:	ea43 4308 	orr.w	r3, r3, r8, lsl #16
 80003e6:	fba3 9502 	umull	r9, r5, r3, r2
 80003ea:	eba4 040e 	sub.w	r4, r4, lr
 80003ee:	42ac      	cmp	r4, r5
 80003f0:	46c8      	mov	r8, r9
 80003f2:	46ae      	mov	lr, r5
 80003f4:	d356      	bcc.n	80004a4 <__udivmoddi4+0x29c>
 80003f6:	d053      	beq.n	80004a0 <__udivmoddi4+0x298>
 80003f8:	b156      	cbz	r6, 8000410 <__udivmoddi4+0x208>
 80003fa:	ebb0 0208 	subs.w	r2, r0, r8
 80003fe:	eb64 040e 	sbc.w	r4, r4, lr
 8000402:	fa04 f707 	lsl.w	r7, r4, r7
 8000406:	40ca      	lsrs	r2, r1
 8000408:	40cc      	lsrs	r4, r1
 800040a:	4317      	orrs	r7, r2
 800040c:	e9c6 7400 	strd	r7, r4, [r6]
 8000410:	4618      	mov	r0, r3
 8000412:	2100      	movs	r1, #0
 8000414:	e8bd 87f0 	ldmia.w	sp!, {r4, r5, r6, r7, r8, r9, sl, pc}
 8000418:	f1c3 0120 	rsb	r1, r3, #32
 800041c:	fa02 fc03 	lsl.w	ip, r2, r3
 8000420:	fa20 f201 	lsr.w	r2, r0, r1
 8000424:	fa25 f101 	lsr.w	r1, r5, r1
 8000428:	409d      	lsls	r5, r3
 800042a:	432a      	orrs	r2, r5
 800042c:	ea4f 471c 	mov.w	r7, ip, lsr #16
 8000430:	fa1f fe8c 	uxth.w	lr, ip
 8000434:	fbb1 f0f7 	udiv	r0, r1, r7
 8000438:	fb07 1510 	mls	r5, r7, r0, r1
 800043c:	0c11      	lsrs	r1, r2, #16
 800043e:	ea41 4105 	orr.w	r1, r1, r5, lsl #16
 8000442:	fb00 f50e 	mul.w	r5, r0, lr
 8000446:	428d      	cmp	r5, r1
 8000448:	fa04 f403 	lsl.w	r4, r4, r3
 800044c:	d908      	bls.n	8000460 <__udivmoddi4+0x258>
 800044e:	eb1c 0101 	adds.w	r1, ip, r1
 8000452:	f100 38ff 	add.w	r8, r0, #4294967295
 8000456:	d22f      	bcs.n	80004b8 <__udivmoddi4+0x2b0>
 8000458:	428d      	cmp	r5, r1
 800045a:	d92d      	bls.n	80004b8 <__udivmoddi4+0x2b0>
 800045c:	3802      	subs	r0, #2
 800045e:	4461      	add	r1, ip
 8000460:	1b49      	subs	r1, r1, r5
 8000462:	b292      	uxth	r2, r2
 8000464:	fbb1 f5f7 	udiv	r5, r1, r7
 8000468:	fb07 1115 	mls	r1, r7, r5, r1
 800046c:	ea42 4201 	orr.w	r2, r2, r1, lsl #16
 8000470:	fb05 f10e 	mul.w	r1, r5, lr
 8000474:	4291      	cmp	r1, r2
 8000476:	d908      	bls.n	800048a <__udivmoddi4+0x282>
 8000478:	eb1c 0202 	adds.w	r2, ip, r2
 800047c:	f105 38ff 	add.w	r8, r5, #4294967295
 8000480:	d216      	bcs.n	80004b0 <__udivmoddi4+0x2a8>
 8000482:	4291      	cmp	r1, r2
 8000484:	d914      	bls.n	80004b0 <__udivmoddi4+0x2a8>
 8000486:	3d02      	subs	r5, #2
 8000488:	4462      	add	r2, ip
 800048a:	1a52      	subs	r2, r2, r1
 800048c:	ea45 4100 	orr.w	r1, r5, r0, lsl #16
 8000490:	e738      	b.n	8000304 <__udivmoddi4+0xfc>
 8000492:	4631      	mov	r1, r6
 8000494:	4630      	mov	r0, r6
 8000496:	e708      	b.n	80002aa <__udivmoddi4+0xa2>
 8000498:	4639      	mov	r1, r7
 800049a:	e6e6      	b.n	800026a <__udivmoddi4+0x62>
 800049c:	4610      	mov	r0, r2
 800049e:	e6fb      	b.n	8000298 <__udivmoddi4+0x90>
 80004a0:	4548      	cmp	r0, r9
 80004a2:	d2a9      	bcs.n	80003f8 <__udivmoddi4+0x1f0>
 80004a4:	ebb9 0802 	subs.w	r8, r9, r2
 80004a8:	eb65 0e0c 	sbc.w	lr, r5, ip
 80004ac:	3b01      	subs	r3, #1
 80004ae:	e7a3      	b.n	80003f8 <__udivmoddi4+0x1f0>
 80004b0:	4645      	mov	r5, r8
 80004b2:	e7ea      	b.n	800048a <__udivmoddi4+0x282>
 80004b4:	462b      	mov	r3, r5
 80004b6:	e794      	b.n	80003e2 <__udivmoddi4+0x1da>
 80004b8:	4640      	mov	r0, r8
 80004ba:	e7d1      	b.n	8000460 <__udivmoddi4+0x258>
 80004bc:	46d0      	mov	r8, sl
 80004be:	e77b      	b.n	80003b8 <__udivmoddi4+0x1b0>
 80004c0:	3d02      	subs	r5, #2
 80004c2:	4462      	add	r2, ip
 80004c4:	e732      	b.n	800032c <__udivmoddi4+0x124>
 80004c6:	4608      	mov	r0, r1
 80004c8:	e70a      	b.n	80002e0 <__udivmoddi4+0xd8>
 80004ca:	4464      	add	r4, ip
 80004cc:	3802      	subs	r0, #2
 80004ce:	e742      	b.n	8000356 <__udivmoddi4+0x14e>

080004d0 <__aeabi_idiv0>:
 80004d0:	4770      	bx	lr
 80004d2:	bf00      	nop

080004d4 <lbd>:
{

}

void lbd(void)
{
 80004d4:	b580      	push	{r7, lr}
 80004d6:	af00      	add	r7, sp, #0
	static u8 state = GPIO_STATE_HIGH;


	GPIO_SetPinState(GPIO_PORT_B, GPIO_PIN_1, state);
 80004d8:	4b09      	ldr	r3, [pc, #36]	; (8000500 <lbd+0x2c>)
 80004da:	781b      	ldrb	r3, [r3, #0]
 80004dc:	461a      	mov	r2, r3
 80004de:	2101      	movs	r1, #1
 80004e0:	4808      	ldr	r0, [pc, #32]	; (8000504 <lbd+0x30>)
 80004e2:	f000 fde3 	bl	80010ac <GPIO_SetPinState>
	state = !state;
 80004e6:	4b06      	ldr	r3, [pc, #24]	; (8000500 <lbd+0x2c>)
 80004e8:	781b      	ldrb	r3, [r3, #0]
 80004ea:	2b00      	cmp	r3, #0
 80004ec:	bf0c      	ite	eq
 80004ee:	2301      	moveq	r3, #1
 80004f0:	2300      	movne	r3, #0
 80004f2:	b2db      	uxtb	r3, r3
 80004f4:	461a      	mov	r2, r3
 80004f6:	4b02      	ldr	r3, [pc, #8]	; (8000500 <lbd+0x2c>)
 80004f8:	701a      	strb	r2, [r3, #0]
}
 80004fa:	bf00      	nop
 80004fc:	bd80      	pop	{r7, pc}
 80004fe:	bf00      	nop
 8000500:	20000000 	.word	0x20000000
 8000504:	40020400 	.word	0x40020400

08000508 <main>:
	LCD_WriteBufferAsync(buffer, 7);
}


int main(void)
{
 8000508:	b580      	push	{r7, lr}
 800050a:	b088      	sub	sp, #32
 800050c:	af00      	add	r7, sp, #0

    RCC_EnableClk(RCC_CLK_HSE);
 800050e:	2001      	movs	r0, #1
 8000510:	f000 fe68 	bl	80011e4 <RCC_EnableClk>
    RCC_SetSystemClk(RCC_SYSCLK_HSE);
 8000514:	2001      	movs	r0, #1
 8000516:	f000 fedf 	bl	80012d8 <RCC_SetSystemClk>

    RCC_EnablePeripheral(RCC_GPIOA);
 800051a:	f04f 0000 	mov.w	r0, #0
 800051e:	f04f 0103 	mov.w	r1, #3
 8000522:	f000 ff15 	bl	8001350 <RCC_EnablePeripheral>
    RCC_EnablePeripheral(RCC_GPIOB);
 8000526:	f04f 0001 	mov.w	r0, #1
 800052a:	f04f 0103 	mov.w	r1, #3
 800052e:	f000 ff0f 	bl	8001350 <RCC_EnablePeripheral>
    RCC_EnablePeripheral(RCC_USART1);
 8000532:	f04f 0064 	mov.w	r0, #100	; 0x64
 8000536:	f04f 0103 	mov.w	r1, #3
 800053a:	f000 ff09 	bl	8001350 <RCC_EnablePeripheral>
    RCC_EnablePeripheral(RCC_USART2);
 800053e:	f04f 0051 	mov.w	r0, #81	; 0x51
 8000542:	f04f 0103 	mov.w	r1, #3
 8000546:	f000 ff03 	bl	8001350 <RCC_EnablePeripheral>
    RCC_EnablePeripheral(RCC_USART6);
 800054a:	f04f 0065 	mov.w	r0, #101	; 0x65
 800054e:	f04f 0103 	mov.w	r1, #3
 8000552:	f000 fefd 	bl	8001350 <RCC_EnablePeripheral>

    NVIC_EnableInterrupt(NVIC_USART2);
 8000556:	f04f 0026 	mov.w	r0, #38	; 0x26
 800055a:	f04f 010f 	mov.w	r1, #15
 800055e:	f000 fe2b 	bl	80011b8 <NVIC_EnableInterrupt>



	GPIO_Pin_t ledPin;

	ledPin.Mode = GPIO_MODE_OP_PP;
 8000562:	2301      	movs	r3, #1
 8000564:	617b      	str	r3, [r7, #20]
	ledPin.AF = GPIO_AF_SYSTEM;
 8000566:	2300      	movs	r3, #0
 8000568:	61fb      	str	r3, [r7, #28]
	ledPin.Pin = GPIO_PIN_1;
 800056a:	2301      	movs	r3, #1
 800056c:	613b      	str	r3, [r7, #16]
	ledPin.Port = GPIO_PORT_B;
 800056e:	4b15      	ldr	r3, [pc, #84]	; (80005c4 <main+0xbc>)
 8000570:	60fb      	str	r3, [r7, #12]
	ledPin.Speed = GPIO_SPEED_HIGH;
 8000572:	2302      	movs	r3, #2
 8000574:	61bb      	str	r3, [r7, #24]
	GPIO_Init(&ledPin);
 8000576:	f107 030c 	add.w	r3, r7, #12
 800057a:	4618      	mov	r0, r3
 800057c:	f000 fbf4 	bl	8000d68 <GPIO_Init>

	LIN_HW_Init();
 8000580:	f000 f854 	bl	800062c <LIN_HW_Init>


    LCD_Init();
 8000584:	f000 fae6 	bl	8000b54 <LCD_Init>
    LED_Init();
 8000588:	f000 fb2e 	bl	8000be8 <LED_Init>

    UART_LIN_Config_t linConfig;
    linConfig.State = UART_LIN_ENABLED;
 800058c:	f44f 4380 	mov.w	r3, #16384	; 0x4000
 8000590:	603b      	str	r3, [r7, #0]
    linConfig.BreakDetectLength = UART_LIN_BREAK_DETECTION_11;
 8000592:	2320      	movs	r3, #32
 8000594:	607b      	str	r3, [r7, #4]
    linConfig.BreakDetectInterrupt = UART_LIN_BREAK_INTERRUPT_ENABLED;
 8000596:	2340      	movs	r3, #64	; 0x40
 8000598:	60bb      	str	r3, [r7, #8]

    UART_ConfigLIN(UART2, &linConfig);
 800059a:	463b      	mov	r3, r7
 800059c:	4619      	mov	r1, r3
 800059e:	2001      	movs	r0, #1
 80005a0:	f001 f8c8 	bl	8001734 <UART_ConfigLIN>


    UART_SetLBDCallback(UART2, lbd);
 80005a4:	4908      	ldr	r1, [pc, #32]	; (80005c8 <main+0xc0>)
 80005a6:	2001      	movs	r0, #1
 80005a8:	f001 f92a 	bl	8001800 <UART_SetLBDCallback>

//    UART_TXLINBreak(UART2);

    blinkingLed_Init();
 80005ac:	f000 f81c 	bl	80005e8 <blinkingLed_Init>

    SCHED_Init();
 80005b0:	f001 fb16 	bl	8001be0 <SCHED_Init>
    SCHED_Start();
 80005b4:	f001 fb46 	bl	8001c44 <SCHED_Start>

    return 0;
 80005b8:	2300      	movs	r3, #0
}
 80005ba:	4618      	mov	r0, r3
 80005bc:	3720      	adds	r7, #32
 80005be:	46bd      	mov	sp, r7
 80005c0:	bd80      	pop	{r7, pc}
 80005c2:	bf00      	nop
 80005c4:	40020400 	.word	0x40020400
 80005c8:	080004d5 	.word	0x080004d5

080005cc <lcdApp>:


void lcdApp(void)
{
 80005cc:	b580      	push	{r7, lr}
 80005ce:	af00      	add	r7, sp, #0
//	UART_TXByte(UART2, 'A');

//	UART_TXBufferAsyncZC(UART2, "Ahmed\n\r", 7, fun);

	UART_TXLINBreak(UART2);
 80005d0:	2001      	movs	r0, #1
 80005d2:	f001 f8eb 	bl	80017ac <UART_TXLINBreak>

}
 80005d6:	bf00      	nop
 80005d8:	bd80      	pop	{r7, pc}

080005da <uartApp>:

void uartApp(void)
{
 80005da:	b480      	push	{r7}
 80005dc:	af00      	add	r7, sp, #0
//	else if(input == '1')
//	{
//		LED_SetState(LED_ONE, LED_STATE_ON);
//		UART_RXBufferAsyncZC(UART2, buffer, 7, rxCB);
//	}
}
 80005de:	bf00      	nop
 80005e0:	46bd      	mov	sp, r7
 80005e2:	f85d 7b04 	ldr.w	r7, [sp], #4
 80005e6:	4770      	bx	lr

080005e8 <blinkingLed_Init>:
/*                                  IMPLEMENTATION                           	*/
/* ============================================================================ */


void blinkingLed_Init(void)
{
 80005e8:	b580      	push	{r7, lr}
 80005ea:	af00      	add	r7, sp, #0
    RCC_EnablePeripheral(RCC_GPIOC);
 80005ec:	f04f 0002 	mov.w	r0, #2
 80005f0:	f04f 0103 	mov.w	r1, #3
 80005f4:	f000 feac 	bl	8001350 <RCC_EnablePeripheral>
    LED_Init();
 80005f8:	f000 faf6 	bl	8000be8 <LED_Init>
}
 80005fc:	bf00      	nop
 80005fe:	bd80      	pop	{r7, pc}

08000600 <blinkingLed_Update>:

void blinkingLed_Update(void)
{
 8000600:	b580      	push	{r7, lr}
 8000602:	af00      	add	r7, sp, #0
    LED_SetState(BLINKING_LED, state);
 8000604:	4b08      	ldr	r3, [pc, #32]	; (8000628 <blinkingLed_Update+0x28>)
 8000606:	781b      	ldrb	r3, [r3, #0]
 8000608:	4619      	mov	r1, r3
 800060a:	2000      	movs	r0, #0
 800060c:	f000 fb68 	bl	8000ce0 <LED_SetState>
    state = !state;
 8000610:	4b05      	ldr	r3, [pc, #20]	; (8000628 <blinkingLed_Update+0x28>)
 8000612:	781b      	ldrb	r3, [r3, #0]
 8000614:	2b00      	cmp	r3, #0
 8000616:	bf0c      	ite	eq
 8000618:	2301      	moveq	r3, #1
 800061a:	2300      	movne	r3, #0
 800061c:	b2db      	uxtb	r3, r3
 800061e:	461a      	mov	r2, r3
 8000620:	4b01      	ldr	r3, [pc, #4]	; (8000628 <blinkingLed_Update+0x28>)
 8000622:	701a      	strb	r2, [r3, #0]
 8000624:	bf00      	nop
 8000626:	bd80      	pop	{r7, pc}
 8000628:	20000080 	.word	0x20000080

0800062c <LIN_HW_Init>:


#elif LIN_HW_USED_UART == UART2

void LIN_HW_Init(void)
{
 800062c:	b580      	push	{r7, lr}
 800062e:	b090      	sub	sp, #64	; 0x40
 8000630:	af00      	add	r7, sp, #0

    GPIO_Pin_t uartTX;
    GPIO_Pin_t uartRX;

    uartTX.Mode = GPIO_MODE_AF_PP;
 8000632:	2302      	movs	r3, #2
 8000634:	637b      	str	r3, [r7, #52]	; 0x34
    uartTX.AF = GPIO_AF_USART1_2;
 8000636:	2307      	movs	r3, #7
 8000638:	63fb      	str	r3, [r7, #60]	; 0x3c
    uartTX.Pin = GPIO_PIN_2;
 800063a:	2302      	movs	r3, #2
 800063c:	633b      	str	r3, [r7, #48]	; 0x30
    uartTX.Port = GPIO_PORT_A;
 800063e:	4b16      	ldr	r3, [pc, #88]	; (8000698 <LIN_HW_Init+0x6c>)
 8000640:	62fb      	str	r3, [r7, #44]	; 0x2c
    uartTX.Speed = GPIO_SPEED_HIGH;
 8000642:	2302      	movs	r3, #2
 8000644:	63bb      	str	r3, [r7, #56]	; 0x38

    uartRX.Mode = GPIO_MODE_AF_PP;
 8000646:	2302      	movs	r3, #2
 8000648:	623b      	str	r3, [r7, #32]
    uartRX.AF = GPIO_AF_USART1_2;
 800064a:	2307      	movs	r3, #7
 800064c:	62bb      	str	r3, [r7, #40]	; 0x28
    uartRX.Pin = GPIO_PIN_3;
 800064e:	2303      	movs	r3, #3
 8000650:	61fb      	str	r3, [r7, #28]
    uartRX.Port = GPIO_PORT_A;
 8000652:	4b11      	ldr	r3, [pc, #68]	; (8000698 <LIN_HW_Init+0x6c>)
 8000654:	61bb      	str	r3, [r7, #24]
    uartRX.Speed = GPIO_SPEED_HIGH;
 8000656:	2302      	movs	r3, #2
 8000658:	627b      	str	r3, [r7, #36]	; 0x24

    GPIO_Init(&uartTX);
 800065a:	f107 032c 	add.w	r3, r7, #44	; 0x2c
 800065e:	4618      	mov	r0, r3
 8000660:	f000 fb82 	bl	8000d68 <GPIO_Init>
    GPIO_Init(&uartRX);
 8000664:	f107 0318 	add.w	r3, r7, #24
 8000668:	4618      	mov	r0, r3
 800066a:	f000 fb7d 	bl	8000d68 <GPIO_Init>


    UART_Config_t uart1Config;
    uart1Config.BaudRate = LIN_SPEED;
 800066e:	f44f 5316 	mov.w	r3, #9600	; 0x2580
 8000672:	607b      	str	r3, [r7, #4]
    uart1Config.Mode = UART_MODE_TX_RX;
 8000674:	230c      	movs	r3, #12
 8000676:	613b      	str	r3, [r7, #16]
    uart1Config.Parity = UART_PARITY_DISABLE;
 8000678:	2300      	movs	r3, #0
 800067a:	60fb      	str	r3, [r7, #12]
    uart1Config.Sampling = UART_SAMPLING_16;
 800067c:	2300      	movs	r3, #0
 800067e:	617b      	str	r3, [r7, #20]
    uart1Config.WordLength = UART_WORDLENGTH_8;
 8000680:	2300      	movs	r3, #0
 8000682:	60bb      	str	r3, [r7, #8]

    UART_SetConfig(UART2, &uart1Config);
 8000684:	1d3b      	adds	r3, r7, #4
 8000686:	4619      	mov	r1, r3
 8000688:	2001      	movs	r0, #1
 800068a:	f000 ff51 	bl	8001530 <UART_SetConfig>
}
 800068e:	bf00      	nop
 8000690:	3740      	adds	r7, #64	; 0x40
 8000692:	46bd      	mov	sp, r7
 8000694:	bd80      	pop	{r7, pc}
 8000696:	bf00      	nop
 8000698:	40020000 	.word	0x40020000

0800069c <Latch>:
 * It also handles the case of 8-bit mode and 4-bit mode
 * 
 * @param byte The byte to be written on LCD pins
 */
static void Latch(u8 byte)
{
 800069c:	b590      	push	{r4, r7, lr}
 800069e:	b085      	sub	sp, #20
 80006a0:	af00      	add	r7, sp, #0
 80006a2:	4603      	mov	r3, r0
 80006a4:	71fb      	strb	r3, [r7, #7]
    #endif

    static u8 EnablePinState = ENABLE_PIN_LOW;      /* State of the Enable Pin */
    u8 iter;

    if(EnablePinState == ENABLE_PIN_LOW)
 80006a6:	4b20      	ldr	r3, [pc, #128]	; (8000728 <Latch+0x8c>)
 80006a8:	781b      	ldrb	r3, [r3, #0]
 80006aa:	2b00      	cmp	r3, #0
 80006ac:	d125      	bne.n	80006fa <Latch+0x5e>
    {
        for(iter = 0; iter < LCD_PINS_NUM; iter++)
 80006ae:	2300      	movs	r3, #0
 80006b0:	73fb      	strb	r3, [r7, #15]
 80006b2:	e01b      	b.n	80006ec <Latch+0x50>
            /* set the lcd pin state with the value corresponding to the bit in the sent byte */

            #if LCD_MODE == LCD_8_BIT_MODE
            GPIO_SetPinState( LCD_Pins[iter].Port, LCD_Pins[iter].Pin, (byte >> iter)&1 );
            #elif LCD_MODE == LCD_4_BIT_MODE
            GPIO_SetPinState( LCD_Pins[iter].Port, LCD_Pins[iter].Pin, (byte >> (iter+currNibble))&1 );
 80006b4:	7bfb      	ldrb	r3, [r7, #15]
 80006b6:	4a1d      	ldr	r2, [pc, #116]	; (800072c <Latch+0x90>)
 80006b8:	f852 0033 	ldr.w	r0, [r2, r3, lsl #3]
 80006bc:	7bfb      	ldrb	r3, [r7, #15]
 80006be:	4a1b      	ldr	r2, [pc, #108]	; (800072c <Latch+0x90>)
 80006c0:	00db      	lsls	r3, r3, #3
 80006c2:	4413      	add	r3, r2
 80006c4:	791b      	ldrb	r3, [r3, #4]
 80006c6:	461c      	mov	r4, r3
 80006c8:	79fa      	ldrb	r2, [r7, #7]
 80006ca:	7bfb      	ldrb	r3, [r7, #15]
 80006cc:	4918      	ldr	r1, [pc, #96]	; (8000730 <Latch+0x94>)
 80006ce:	7809      	ldrb	r1, [r1, #0]
 80006d0:	440b      	add	r3, r1
 80006d2:	fa42 f303 	asr.w	r3, r2, r3
 80006d6:	b2db      	uxtb	r3, r3
 80006d8:	f003 0301 	and.w	r3, r3, #1
 80006dc:	b2db      	uxtb	r3, r3
 80006de:	461a      	mov	r2, r3
 80006e0:	4621      	mov	r1, r4
 80006e2:	f000 fce3 	bl	80010ac <GPIO_SetPinState>
        for(iter = 0; iter < LCD_PINS_NUM; iter++)
 80006e6:	7bfb      	ldrb	r3, [r7, #15]
 80006e8:	3301      	adds	r3, #1
 80006ea:	73fb      	strb	r3, [r7, #15]
 80006ec:	7bfb      	ldrb	r3, [r7, #15]
 80006ee:	2b03      	cmp	r3, #3
 80006f0:	d9e0      	bls.n	80006b4 <Latch+0x18>
            #endif

        }

        EnablePinState = ENABLE_PIN_HIGH;
 80006f2:	4b0d      	ldr	r3, [pc, #52]	; (8000728 <Latch+0x8c>)
 80006f4:	2201      	movs	r2, #1
 80006f6:	701a      	strb	r2, [r3, #0]
 80006f8:	e00b      	b.n	8000712 <Latch+0x76>
    }
    else
    {
        EnablePinState = ENABLE_PIN_LOW;
 80006fa:	4b0b      	ldr	r3, [pc, #44]	; (8000728 <Latch+0x8c>)
 80006fc:	2200      	movs	r2, #0
 80006fe:	701a      	strb	r2, [r3, #0]
        #if LCD_MODE == LCD_4_BIT_MODE
        /* Change the Nibble to be latched to the opposite Nibble
            Since in 4-bit mode, the high nibble is handled first then
            low nibble, then each time a nibble is latched we need to change
            the nibble to be latched to the opposite nibble */
        currNibble = (currNibble == HIGH_NIBBLE)? LOW_NIBBLE : HIGH_NIBBLE;
 8000700:	4b0b      	ldr	r3, [pc, #44]	; (8000730 <Latch+0x94>)
 8000702:	781b      	ldrb	r3, [r3, #0]
 8000704:	2b04      	cmp	r3, #4
 8000706:	d101      	bne.n	800070c <Latch+0x70>
 8000708:	2200      	movs	r2, #0
 800070a:	e000      	b.n	800070e <Latch+0x72>
 800070c:	2204      	movs	r2, #4
 800070e:	4b08      	ldr	r3, [pc, #32]	; (8000730 <Latch+0x94>)
 8000710:	701a      	strb	r2, [r3, #0]
        #endif
    }
    GPIO_SetPinState(LCD_PORT_E, LCD_PIN_E, EnablePinState);
 8000712:	4b05      	ldr	r3, [pc, #20]	; (8000728 <Latch+0x8c>)
 8000714:	781b      	ldrb	r3, [r3, #0]
 8000716:	461a      	mov	r2, r3
 8000718:	210a      	movs	r1, #10
 800071a:	4806      	ldr	r0, [pc, #24]	; (8000734 <Latch+0x98>)
 800071c:	f000 fcc6 	bl	80010ac <GPIO_SetPinState>
}
 8000720:	bf00      	nop
 8000722:	3714      	adds	r7, #20
 8000724:	46bd      	mov	sp, r7
 8000726:	bd90      	pop	{r4, r7, pc}
 8000728:	20000098 	.word	0x20000098
 800072c:	08001d3c 	.word	0x08001d3c
 8000730:	20000001 	.word	0x20000001
 8000734:	40020000 	.word	0x40020000

08000738 <WriteCommand>:


static void WriteCommand(u8 command)
{
 8000738:	b580      	push	{r7, lr}
 800073a:	b082      	sub	sp, #8
 800073c:	af00      	add	r7, sp, #0
 800073e:	4603      	mov	r3, r0
 8000740:	71fb      	strb	r3, [r7, #7]
    GPIO_SetPinState(LCD_PORT_RS, LCD_PIN_RS, 0);   
 8000742:	2200      	movs	r2, #0
 8000744:	2108      	movs	r1, #8
 8000746:	4808      	ldr	r0, [pc, #32]	; (8000768 <WriteCommand+0x30>)
 8000748:	f000 fcb0 	bl	80010ac <GPIO_SetPinState>
    GPIO_SetPinState(LCD_PORT_RW, LCD_PIN_RW, 0);   
 800074c:	2200      	movs	r2, #0
 800074e:	2109      	movs	r1, #9
 8000750:	4805      	ldr	r0, [pc, #20]	; (8000768 <WriteCommand+0x30>)
 8000752:	f000 fcab 	bl	80010ac <GPIO_SetPinState>
    Latch(command);
 8000756:	79fb      	ldrb	r3, [r7, #7]
 8000758:	4618      	mov	r0, r3
 800075a:	f7ff ff9f 	bl	800069c <Latch>
}
 800075e:	bf00      	nop
 8000760:	3708      	adds	r7, #8
 8000762:	46bd      	mov	sp, r7
 8000764:	bd80      	pop	{r7, pc}
 8000766:	bf00      	nop
 8000768:	40020000 	.word	0x40020000

0800076c <WriteData>:


static void WriteData(u8 data)
{
 800076c:	b580      	push	{r7, lr}
 800076e:	b082      	sub	sp, #8
 8000770:	af00      	add	r7, sp, #0
 8000772:	4603      	mov	r3, r0
 8000774:	71fb      	strb	r3, [r7, #7]

    GPIO_SetPinState(LCD_PORT_RS, LCD_PIN_RS, 1);   
 8000776:	2201      	movs	r2, #1
 8000778:	2108      	movs	r1, #8
 800077a:	4808      	ldr	r0, [pc, #32]	; (800079c <WriteData+0x30>)
 800077c:	f000 fc96 	bl	80010ac <GPIO_SetPinState>
    GPIO_SetPinState(LCD_PORT_RW, LCD_PIN_RW, 0); 
 8000780:	2200      	movs	r2, #0
 8000782:	2109      	movs	r1, #9
 8000784:	4805      	ldr	r0, [pc, #20]	; (800079c <WriteData+0x30>)
 8000786:	f000 fc91 	bl	80010ac <GPIO_SetPinState>

    Latch(data);
 800078a:	79fb      	ldrb	r3, [r7, #7]
 800078c:	4618      	mov	r0, r3
 800078e:	f7ff ff85 	bl	800069c <Latch>
}
 8000792:	bf00      	nop
 8000794:	3708      	adds	r7, #8
 8000796:	46bd      	mov	sp, r7
 8000798:	bd80      	pop	{r7, pc}
 800079a:	bf00      	nop
 800079c:	40020000 	.word	0x40020000

080007a0 <InitProcess>:
}

#elif LCD_MODE == LCD_4_BIT_MODE

static void InitProcess(void)
{
 80007a0:	b580      	push	{r7, lr}
 80007a2:	af00      	add	r7, sp, #0
    static LCD_Init_States_t InitState = POWER_ON_STATE;
    static u8 counter = 0;

    switch(InitState)
 80007a4:	4b63      	ldr	r3, [pc, #396]	; (8000934 <InitProcess+0x194>)
 80007a6:	781b      	ldrb	r3, [r3, #0]
 80007a8:	2b06      	cmp	r3, #6
 80007aa:	f200 80bb 	bhi.w	8000924 <InitProcess+0x184>
 80007ae:	a201      	add	r2, pc, #4	; (adr r2, 80007b4 <InitProcess+0x14>)
 80007b0:	f852 f023 	ldr.w	pc, [r2, r3, lsl #2]
 80007b4:	080007d1 	.word	0x080007d1
 80007b8:	080007f5 	.word	0x080007f5
 80007bc:	0800087d 	.word	0x0800087d
 80007c0:	080008a5 	.word	0x080008a5
 80007c4:	080008cd 	.word	0x080008cd
 80007c8:	080008f5 	.word	0x080008f5
 80007cc:	0800091d 	.word	0x0800091d
    {
        case POWER_ON_STATE:
            /* Delay for 30 ms */
            counter += LCD_UPDATE_PERIODICITY_MS;
 80007d0:	4b59      	ldr	r3, [pc, #356]	; (8000938 <InitProcess+0x198>)
 80007d2:	781b      	ldrb	r3, [r3, #0]
 80007d4:	3302      	adds	r3, #2
 80007d6:	b2da      	uxtb	r2, r3
 80007d8:	4b57      	ldr	r3, [pc, #348]	; (8000938 <InitProcess+0x198>)
 80007da:	701a      	strb	r2, [r3, #0]

            if(counter >= 30)
 80007dc:	4b56      	ldr	r3, [pc, #344]	; (8000938 <InitProcess+0x198>)
 80007de:	781b      	ldrb	r3, [r3, #0]
 80007e0:	2b1d      	cmp	r3, #29
 80007e2:	f240 80a1 	bls.w	8000928 <InitProcess+0x188>
            {
                /* Move to next state if dealy reaches 30ms */
                counter = 0;
 80007e6:	4b54      	ldr	r3, [pc, #336]	; (8000938 <InitProcess+0x198>)
 80007e8:	2200      	movs	r2, #0
 80007ea:	701a      	strb	r2, [r3, #0]
                InitState = PRE_FUNCTIONAL_SET_STATE;
 80007ec:	4b51      	ldr	r3, [pc, #324]	; (8000934 <InitProcess+0x194>)
 80007ee:	2201      	movs	r2, #1
 80007f0:	701a      	strb	r2, [r3, #0]
            }
            break;
 80007f2:	e099      	b.n	8000928 <InitProcess+0x188>

        /* The first latch in the Functional Set step as it needs to be done manually */
        case PRE_FUNCTIONAL_SET_STATE:
            counter++;
 80007f4:	4b50      	ldr	r3, [pc, #320]	; (8000938 <InitProcess+0x198>)
 80007f6:	781b      	ldrb	r3, [r3, #0]
 80007f8:	3301      	adds	r3, #1
 80007fa:	b2da      	uxtb	r2, r3
 80007fc:	4b4e      	ldr	r3, [pc, #312]	; (8000938 <InitProcess+0x198>)
 80007fe:	701a      	strb	r2, [r3, #0]
            if(counter == 1)
 8000800:	4b4d      	ldr	r3, [pc, #308]	; (8000938 <InitProcess+0x198>)
 8000802:	781b      	ldrb	r3, [r3, #0]
 8000804:	2b01      	cmp	r3, #1
 8000806:	d129      	bne.n	800085c <InitProcess+0xbc>
            {
                GPIO_SetPinState(LCD_Pins[0].Port, LCD_Pins[0].Pin, GPIO_STATE_LOW);
 8000808:	4b4c      	ldr	r3, [pc, #304]	; (800093c <InitProcess+0x19c>)
 800080a:	681b      	ldr	r3, [r3, #0]
 800080c:	4a4b      	ldr	r2, [pc, #300]	; (800093c <InitProcess+0x19c>)
 800080e:	7912      	ldrb	r2, [r2, #4]
 8000810:	4611      	mov	r1, r2
 8000812:	2200      	movs	r2, #0
 8000814:	4618      	mov	r0, r3
 8000816:	f000 fc49 	bl	80010ac <GPIO_SetPinState>
                GPIO_SetPinState(LCD_Pins[1].Port, LCD_Pins[1].Pin, GPIO_STATE_HIGH);
 800081a:	4b48      	ldr	r3, [pc, #288]	; (800093c <InitProcess+0x19c>)
 800081c:	689b      	ldr	r3, [r3, #8]
 800081e:	4a47      	ldr	r2, [pc, #284]	; (800093c <InitProcess+0x19c>)
 8000820:	7b12      	ldrb	r2, [r2, #12]
 8000822:	4611      	mov	r1, r2
 8000824:	2201      	movs	r2, #1
 8000826:	4618      	mov	r0, r3
 8000828:	f000 fc40 	bl	80010ac <GPIO_SetPinState>
                GPIO_SetPinState(LCD_Pins[2].Port, LCD_Pins[2].Pin, GPIO_STATE_LOW);
 800082c:	4b43      	ldr	r3, [pc, #268]	; (800093c <InitProcess+0x19c>)
 800082e:	691b      	ldr	r3, [r3, #16]
 8000830:	4a42      	ldr	r2, [pc, #264]	; (800093c <InitProcess+0x19c>)
 8000832:	7d12      	ldrb	r2, [r2, #20]
 8000834:	4611      	mov	r1, r2
 8000836:	2200      	movs	r2, #0
 8000838:	4618      	mov	r0, r3
 800083a:	f000 fc37 	bl	80010ac <GPIO_SetPinState>
                GPIO_SetPinState(LCD_Pins[3].Port, LCD_Pins[3].Pin, GPIO_STATE_LOW);
 800083e:	4b3f      	ldr	r3, [pc, #252]	; (800093c <InitProcess+0x19c>)
 8000840:	699b      	ldr	r3, [r3, #24]
 8000842:	4a3e      	ldr	r2, [pc, #248]	; (800093c <InitProcess+0x19c>)
 8000844:	7f12      	ldrb	r2, [r2, #28]
 8000846:	4611      	mov	r1, r2
 8000848:	2200      	movs	r2, #0
 800084a:	4618      	mov	r0, r3
 800084c:	f000 fc2e 	bl	80010ac <GPIO_SetPinState>

                GPIO_SetPinState(LCD_PORT_E, LCD_PIN_E, GPIO_STATE_HIGH);
 8000850:	2201      	movs	r2, #1
 8000852:	210a      	movs	r1, #10
 8000854:	483a      	ldr	r0, [pc, #232]	; (8000940 <InitProcess+0x1a0>)
 8000856:	f000 fc29 	bl	80010ac <GPIO_SetPinState>
                GPIO_SetPinState(LCD_PORT_E, LCD_PIN_E, GPIO_STATE_LOW);

                counter = 0;
                InitState = FUNCTIONAL_SET_STATE;
            }
            break;
 800085a:	e067      	b.n	800092c <InitProcess+0x18c>
            else if(counter == 2)
 800085c:	4b36      	ldr	r3, [pc, #216]	; (8000938 <InitProcess+0x198>)
 800085e:	781b      	ldrb	r3, [r3, #0]
 8000860:	2b02      	cmp	r3, #2
 8000862:	d163      	bne.n	800092c <InitProcess+0x18c>
                GPIO_SetPinState(LCD_PORT_E, LCD_PIN_E, GPIO_STATE_LOW);
 8000864:	2200      	movs	r2, #0
 8000866:	210a      	movs	r1, #10
 8000868:	4835      	ldr	r0, [pc, #212]	; (8000940 <InitProcess+0x1a0>)
 800086a:	f000 fc1f 	bl	80010ac <GPIO_SetPinState>
                counter = 0;
 800086e:	4b32      	ldr	r3, [pc, #200]	; (8000938 <InitProcess+0x198>)
 8000870:	2200      	movs	r2, #0
 8000872:	701a      	strb	r2, [r3, #0]
                InitState = FUNCTIONAL_SET_STATE;
 8000874:	4b2f      	ldr	r3, [pc, #188]	; (8000934 <InitProcess+0x194>)
 8000876:	2202      	movs	r2, #2
 8000878:	701a      	strb	r2, [r3, #0]
            break;
 800087a:	e057      	b.n	800092c <InitProcess+0x18c>

        case FUNCTIONAL_SET_STATE:
            counter++;
 800087c:	4b2e      	ldr	r3, [pc, #184]	; (8000938 <InitProcess+0x198>)
 800087e:	781b      	ldrb	r3, [r3, #0]
 8000880:	3301      	adds	r3, #1
 8000882:	b2da      	uxtb	r2, r3
 8000884:	4b2c      	ldr	r3, [pc, #176]	; (8000938 <InitProcess+0x198>)
 8000886:	701a      	strb	r2, [r3, #0]
            if(counter == LATCH_TARGET_COUNT)
 8000888:	4b2b      	ldr	r3, [pc, #172]	; (8000938 <InitProcess+0x198>)
 800088a:	781b      	ldrb	r3, [r3, #0]
 800088c:	2b04      	cmp	r3, #4
 800088e:	d105      	bne.n	800089c <InitProcess+0xfc>
            {
                counter = 0;
 8000890:	4b29      	ldr	r3, [pc, #164]	; (8000938 <InitProcess+0x198>)
 8000892:	2200      	movs	r2, #0
 8000894:	701a      	strb	r2, [r3, #0]
                InitState = DISPLAY_CTRL_STATE;
 8000896:	4b27      	ldr	r3, [pc, #156]	; (8000934 <InitProcess+0x194>)
 8000898:	2203      	movs	r2, #3
 800089a:	701a      	strb	r2, [r3, #0]
            }
            WriteCommand(FUNCTION_SET);
 800089c:	2028      	movs	r0, #40	; 0x28
 800089e:	f7ff ff4b 	bl	8000738 <WriteCommand>
            break;
 80008a2:	e044      	b.n	800092e <InitProcess+0x18e>

        case DISPLAY_CTRL_STATE:
            counter++;
 80008a4:	4b24      	ldr	r3, [pc, #144]	; (8000938 <InitProcess+0x198>)
 80008a6:	781b      	ldrb	r3, [r3, #0]
 80008a8:	3301      	adds	r3, #1
 80008aa:	b2da      	uxtb	r2, r3
 80008ac:	4b22      	ldr	r3, [pc, #136]	; (8000938 <InitProcess+0x198>)
 80008ae:	701a      	strb	r2, [r3, #0]
            if(counter == LATCH_TARGET_COUNT)
 80008b0:	4b21      	ldr	r3, [pc, #132]	; (8000938 <InitProcess+0x198>)
 80008b2:	781b      	ldrb	r3, [r3, #0]
 80008b4:	2b04      	cmp	r3, #4
 80008b6:	d105      	bne.n	80008c4 <InitProcess+0x124>
            {
                counter = 0;
 80008b8:	4b1f      	ldr	r3, [pc, #124]	; (8000938 <InitProcess+0x198>)
 80008ba:	2200      	movs	r2, #0
 80008bc:	701a      	strb	r2, [r3, #0]
                InitState = CLEAR_DISPLAY_STATE;
 80008be:	4b1d      	ldr	r3, [pc, #116]	; (8000934 <InitProcess+0x194>)
 80008c0:	2204      	movs	r2, #4
 80008c2:	701a      	strb	r2, [r3, #0]
            }
            WriteCommand(LCD_DISPLAY_CONTROL);
 80008c4:	200c      	movs	r0, #12
 80008c6:	f7ff ff37 	bl	8000738 <WriteCommand>
            break;
 80008ca:	e030      	b.n	800092e <InitProcess+0x18e>

        case CLEAR_DISPLAY_STATE:
            counter++;
 80008cc:	4b1a      	ldr	r3, [pc, #104]	; (8000938 <InitProcess+0x198>)
 80008ce:	781b      	ldrb	r3, [r3, #0]
 80008d0:	3301      	adds	r3, #1
 80008d2:	b2da      	uxtb	r2, r3
 80008d4:	4b18      	ldr	r3, [pc, #96]	; (8000938 <InitProcess+0x198>)
 80008d6:	701a      	strb	r2, [r3, #0]
            if(counter == LATCH_TARGET_COUNT)
 80008d8:	4b17      	ldr	r3, [pc, #92]	; (8000938 <InitProcess+0x198>)
 80008da:	781b      	ldrb	r3, [r3, #0]
 80008dc:	2b04      	cmp	r3, #4
 80008de:	d105      	bne.n	80008ec <InitProcess+0x14c>
            {
                counter = 0;
 80008e0:	4b15      	ldr	r3, [pc, #84]	; (8000938 <InitProcess+0x198>)
 80008e2:	2200      	movs	r2, #0
 80008e4:	701a      	strb	r2, [r3, #0]
                InitState = ENTRY_MODE_STATE;
 80008e6:	4b13      	ldr	r3, [pc, #76]	; (8000934 <InitProcess+0x194>)
 80008e8:	2205      	movs	r2, #5
 80008ea:	701a      	strb	r2, [r3, #0]
            }
            WriteCommand(LCD_CLEAR_DISPLAY);
 80008ec:	2001      	movs	r0, #1
 80008ee:	f7ff ff23 	bl	8000738 <WriteCommand>
            break;
 80008f2:	e01c      	b.n	800092e <InitProcess+0x18e>
                    
        case ENTRY_MODE_STATE:
            counter++;
 80008f4:	4b10      	ldr	r3, [pc, #64]	; (8000938 <InitProcess+0x198>)
 80008f6:	781b      	ldrb	r3, [r3, #0]
 80008f8:	3301      	adds	r3, #1
 80008fa:	b2da      	uxtb	r2, r3
 80008fc:	4b0e      	ldr	r3, [pc, #56]	; (8000938 <InitProcess+0x198>)
 80008fe:	701a      	strb	r2, [r3, #0]
            if(counter == LATCH_TARGET_COUNT)
 8000900:	4b0d      	ldr	r3, [pc, #52]	; (8000938 <InitProcess+0x198>)
 8000902:	781b      	ldrb	r3, [r3, #0]
 8000904:	2b04      	cmp	r3, #4
 8000906:	d105      	bne.n	8000914 <InitProcess+0x174>
            {
                counter = 0;
 8000908:	4b0b      	ldr	r3, [pc, #44]	; (8000938 <InitProcess+0x198>)
 800090a:	2200      	movs	r2, #0
 800090c:	701a      	strb	r2, [r3, #0]
                InitState = END_STATE;
 800090e:	4b09      	ldr	r3, [pc, #36]	; (8000934 <InitProcess+0x194>)
 8000910:	2206      	movs	r2, #6
 8000912:	701a      	strb	r2, [r3, #0]
            }
            WriteCommand(LCD_ENTRY_MODE);
 8000914:	2006      	movs	r0, #6
 8000916:	f7ff ff0f 	bl	8000738 <WriteCommand>
            break;
 800091a:	e008      	b.n	800092e <InitProcess+0x18e>

        case END_STATE:
            G_LCDState = LCD_OPERATION;
 800091c:	4b09      	ldr	r3, [pc, #36]	; (8000944 <InitProcess+0x1a4>)
 800091e:	2202      	movs	r2, #2
 8000920:	701a      	strb	r2, [r3, #0]
            break;
 8000922:	e004      	b.n	800092e <InitProcess+0x18e>
        
        default:
            break;
 8000924:	bf00      	nop
 8000926:	e002      	b.n	800092e <InitProcess+0x18e>
            break;
 8000928:	bf00      	nop
 800092a:	e000      	b.n	800092e <InitProcess+0x18e>
            break;
 800092c:	bf00      	nop
    }
}
 800092e:	bf00      	nop
 8000930:	bd80      	pop	{r7, pc}
 8000932:	bf00      	nop
 8000934:	20000099 	.word	0x20000099
 8000938:	2000009a 	.word	0x2000009a
 800093c:	08001d3c 	.word	0x08001d3c
 8000940:	40020000 	.word	0x40020000
 8000944:	20000081 	.word	0x20000081

08000948 <WriteString>:
} */


/* Iterates through the string and prints each character */
static void WriteString(void)
{
 8000948:	b580      	push	{r7, lr}
 800094a:	af00      	add	r7, sp, #0

    if(G_WriteReq.data[G_WriteReq.currIndex] != '\0')
 800094c:	4b19      	ldr	r3, [pc, #100]	; (80009b4 <WriteString+0x6c>)
 800094e:	681b      	ldr	r3, [r3, #0]
 8000950:	4a18      	ldr	r2, [pc, #96]	; (80009b4 <WriteString+0x6c>)
 8000952:	7952      	ldrb	r2, [r2, #5]
 8000954:	4413      	add	r3, r2
 8000956:	781b      	ldrb	r3, [r3, #0]
 8000958:	2b00      	cmp	r3, #0
 800095a:	d022      	beq.n	80009a2 <WriteString+0x5a>
    {
        WriteData(G_WriteReq.data[G_WriteReq.currIndex]);
 800095c:	4b15      	ldr	r3, [pc, #84]	; (80009b4 <WriteString+0x6c>)
 800095e:	681b      	ldr	r3, [r3, #0]
 8000960:	4a14      	ldr	r2, [pc, #80]	; (80009b4 <WriteString+0x6c>)
 8000962:	7952      	ldrb	r2, [r2, #5]
 8000964:	4413      	add	r3, r2
 8000966:	781b      	ldrb	r3, [r3, #0]
 8000968:	4618      	mov	r0, r3
 800096a:	f7ff feff 	bl	800076c <WriteData>
        G_OperationLatchCount++;
 800096e:	4b12      	ldr	r3, [pc, #72]	; (80009b8 <WriteString+0x70>)
 8000970:	781b      	ldrb	r3, [r3, #0]
 8000972:	3301      	adds	r3, #1
 8000974:	b2da      	uxtb	r2, r3
 8000976:	4b10      	ldr	r3, [pc, #64]	; (80009b8 <WriteString+0x70>)
 8000978:	701a      	strb	r2, [r3, #0]

        if(G_OperationLatchCount == LATCH_TARGET_COUNT)
 800097a:	4b0f      	ldr	r3, [pc, #60]	; (80009b8 <WriteString+0x70>)
 800097c:	781b      	ldrb	r3, [r3, #0]
 800097e:	2b04      	cmp	r3, #4
 8000980:	d115      	bne.n	80009ae <WriteString+0x66>
        {
            G_WriteReq.currIndex++;
 8000982:	4b0c      	ldr	r3, [pc, #48]	; (80009b4 <WriteString+0x6c>)
 8000984:	795b      	ldrb	r3, [r3, #5]
 8000986:	3301      	adds	r3, #1
 8000988:	b2da      	uxtb	r2, r3
 800098a:	4b0a      	ldr	r3, [pc, #40]	; (80009b4 <WriteString+0x6c>)
 800098c:	715a      	strb	r2, [r3, #5]
            G_OperationLatchCount = 0;
 800098e:	4b0a      	ldr	r3, [pc, #40]	; (80009b8 <WriteString+0x70>)
 8000990:	2200      	movs	r2, #0
 8000992:	701a      	strb	r2, [r3, #0]

            G_CharCount++;
 8000994:	4b09      	ldr	r3, [pc, #36]	; (80009bc <WriteString+0x74>)
 8000996:	781b      	ldrb	r3, [r3, #0]
 8000998:	3301      	adds	r3, #1
 800099a:	b2da      	uxtb	r2, r3
 800099c:	4b07      	ldr	r3, [pc, #28]	; (80009bc <WriteString+0x74>)
 800099e:	701a      	strb	r2, [r3, #0]
    {
        G_Request.state = AVAILABLE;
        G_Request.type = NONE;

    }
}
 80009a0:	e005      	b.n	80009ae <WriteString+0x66>
        G_Request.state = AVAILABLE;
 80009a2:	4b07      	ldr	r3, [pc, #28]	; (80009c0 <WriteString+0x78>)
 80009a4:	2200      	movs	r2, #0
 80009a6:	705a      	strb	r2, [r3, #1]
        G_Request.type = NONE;
 80009a8:	4b05      	ldr	r3, [pc, #20]	; (80009c0 <WriteString+0x78>)
 80009aa:	2200      	movs	r2, #0
 80009ac:	701a      	strb	r2, [r3, #0]
}
 80009ae:	bf00      	nop
 80009b0:	bd80      	pop	{r7, pc}
 80009b2:	bf00      	nop
 80009b4:	2000008c 	.word	0x2000008c
 80009b8:	20000096 	.word	0x20000096
 80009bc:	20000097 	.word	0x20000097
 80009c0:	20000084 	.word	0x20000084

080009c4 <WriteBuffer>:

static void WriteBuffer(void)
{
 80009c4:	b580      	push	{r7, lr}
 80009c6:	af00      	add	r7, sp, #0

    if(G_WriteReq.currIndex < G_WriteReq.length)
 80009c8:	4b18      	ldr	r3, [pc, #96]	; (8000a2c <WriteBuffer+0x68>)
 80009ca:	795a      	ldrb	r2, [r3, #5]
 80009cc:	4b17      	ldr	r3, [pc, #92]	; (8000a2c <WriteBuffer+0x68>)
 80009ce:	791b      	ldrb	r3, [r3, #4]
 80009d0:	429a      	cmp	r2, r3
 80009d2:	d222      	bcs.n	8000a1a <WriteBuffer+0x56>
    {
        WriteData(G_WriteReq.data[G_WriteReq.currIndex]);
 80009d4:	4b15      	ldr	r3, [pc, #84]	; (8000a2c <WriteBuffer+0x68>)
 80009d6:	681b      	ldr	r3, [r3, #0]
 80009d8:	4a14      	ldr	r2, [pc, #80]	; (8000a2c <WriteBuffer+0x68>)
 80009da:	7952      	ldrb	r2, [r2, #5]
 80009dc:	4413      	add	r3, r2
 80009de:	781b      	ldrb	r3, [r3, #0]
 80009e0:	4618      	mov	r0, r3
 80009e2:	f7ff fec3 	bl	800076c <WriteData>
        G_OperationLatchCount++;
 80009e6:	4b12      	ldr	r3, [pc, #72]	; (8000a30 <WriteBuffer+0x6c>)
 80009e8:	781b      	ldrb	r3, [r3, #0]
 80009ea:	3301      	adds	r3, #1
 80009ec:	b2da      	uxtb	r2, r3
 80009ee:	4b10      	ldr	r3, [pc, #64]	; (8000a30 <WriteBuffer+0x6c>)
 80009f0:	701a      	strb	r2, [r3, #0]

        if(G_OperationLatchCount == LATCH_TARGET_COUNT)
 80009f2:	4b0f      	ldr	r3, [pc, #60]	; (8000a30 <WriteBuffer+0x6c>)
 80009f4:	781b      	ldrb	r3, [r3, #0]
 80009f6:	2b04      	cmp	r3, #4
 80009f8:	d115      	bne.n	8000a26 <WriteBuffer+0x62>
        {
            G_WriteReq.currIndex++;
 80009fa:	4b0c      	ldr	r3, [pc, #48]	; (8000a2c <WriteBuffer+0x68>)
 80009fc:	795b      	ldrb	r3, [r3, #5]
 80009fe:	3301      	adds	r3, #1
 8000a00:	b2da      	uxtb	r2, r3
 8000a02:	4b0a      	ldr	r3, [pc, #40]	; (8000a2c <WriteBuffer+0x68>)
 8000a04:	715a      	strb	r2, [r3, #5]
            G_OperationLatchCount = 0;
 8000a06:	4b0a      	ldr	r3, [pc, #40]	; (8000a30 <WriteBuffer+0x6c>)
 8000a08:	2200      	movs	r2, #0
 8000a0a:	701a      	strb	r2, [r3, #0]

            G_CharCount++;
 8000a0c:	4b09      	ldr	r3, [pc, #36]	; (8000a34 <WriteBuffer+0x70>)
 8000a0e:	781b      	ldrb	r3, [r3, #0]
 8000a10:	3301      	adds	r3, #1
 8000a12:	b2da      	uxtb	r2, r3
 8000a14:	4b07      	ldr	r3, [pc, #28]	; (8000a34 <WriteBuffer+0x70>)
 8000a16:	701a      	strb	r2, [r3, #0]
    {
        G_Request.state = AVAILABLE;
        G_Request.type = NONE;

    }
}
 8000a18:	e005      	b.n	8000a26 <WriteBuffer+0x62>
        G_Request.state = AVAILABLE;
 8000a1a:	4b07      	ldr	r3, [pc, #28]	; (8000a38 <WriteBuffer+0x74>)
 8000a1c:	2200      	movs	r2, #0
 8000a1e:	705a      	strb	r2, [r3, #1]
        G_Request.type = NONE;
 8000a20:	4b05      	ldr	r3, [pc, #20]	; (8000a38 <WriteBuffer+0x74>)
 8000a22:	2200      	movs	r2, #0
 8000a24:	701a      	strb	r2, [r3, #0]
}
 8000a26:	bf00      	nop
 8000a28:	bd80      	pop	{r7, pc}
 8000a2a:	bf00      	nop
 8000a2c:	2000008c 	.word	0x2000008c
 8000a30:	20000096 	.word	0x20000096
 8000a34:	20000097 	.word	0x20000097
 8000a38:	20000084 	.word	0x20000084

08000a3c <ClearScreen>:

static void ClearScreen(void)
{
 8000a3c:	b580      	push	{r7, lr}
 8000a3e:	af00      	add	r7, sp, #0
    if(G_OperationLatchCount == LATCH_TARGET_COUNT)
 8000a40:	4b0c      	ldr	r3, [pc, #48]	; (8000a74 <ClearScreen+0x38>)
 8000a42:	781b      	ldrb	r3, [r3, #0]
 8000a44:	2b04      	cmp	r3, #4
 8000a46:	d109      	bne.n	8000a5c <ClearScreen+0x20>
    {
        G_OperationLatchCount = 0;
 8000a48:	4b0a      	ldr	r3, [pc, #40]	; (8000a74 <ClearScreen+0x38>)
 8000a4a:	2200      	movs	r2, #0
 8000a4c:	701a      	strb	r2, [r3, #0]

        G_Request.state = AVAILABLE;
 8000a4e:	4b0a      	ldr	r3, [pc, #40]	; (8000a78 <ClearScreen+0x3c>)
 8000a50:	2200      	movs	r2, #0
 8000a52:	705a      	strb	r2, [r3, #1]
        G_Request.type = NONE;
 8000a54:	4b08      	ldr	r3, [pc, #32]	; (8000a78 <ClearScreen+0x3c>)
 8000a56:	2200      	movs	r2, #0
 8000a58:	701a      	strb	r2, [r3, #0]
    {
        WriteCommand(LCD_CLEAR_DISPLAY);
        G_OperationLatchCount++;
    }

}
 8000a5a:	e008      	b.n	8000a6e <ClearScreen+0x32>
        WriteCommand(LCD_CLEAR_DISPLAY);
 8000a5c:	2001      	movs	r0, #1
 8000a5e:	f7ff fe6b 	bl	8000738 <WriteCommand>
        G_OperationLatchCount++;
 8000a62:	4b04      	ldr	r3, [pc, #16]	; (8000a74 <ClearScreen+0x38>)
 8000a64:	781b      	ldrb	r3, [r3, #0]
 8000a66:	3301      	adds	r3, #1
 8000a68:	b2da      	uxtb	r2, r3
 8000a6a:	4b02      	ldr	r3, [pc, #8]	; (8000a74 <ClearScreen+0x38>)
 8000a6c:	701a      	strb	r2, [r3, #0]
}
 8000a6e:	bf00      	nop
 8000a70:	bd80      	pop	{r7, pc}
 8000a72:	bf00      	nop
 8000a74:	20000096 	.word	0x20000096
 8000a78:	20000084 	.word	0x20000084

08000a7c <SetCursorPos>:

static void SetCursorPos(void)
{
 8000a7c:	b580      	push	{r7, lr}
 8000a7e:	af00      	add	r7, sp, #0

    if(G_OperationLatchCount == LATCH_TARGET_COUNT)
 8000a80:	4b16      	ldr	r3, [pc, #88]	; (8000adc <SetCursorPos+0x60>)
 8000a82:	781b      	ldrb	r3, [r3, #0]
 8000a84:	2b04      	cmp	r3, #4
 8000a86:	d109      	bne.n	8000a9c <SetCursorPos+0x20>
    {
        G_OperationLatchCount = 0;
 8000a88:	4b14      	ldr	r3, [pc, #80]	; (8000adc <SetCursorPos+0x60>)
 8000a8a:	2200      	movs	r2, #0
 8000a8c:	701a      	strb	r2, [r3, #0]

        G_Request.state = AVAILABLE;
 8000a8e:	4b14      	ldr	r3, [pc, #80]	; (8000ae0 <SetCursorPos+0x64>)
 8000a90:	2200      	movs	r2, #0
 8000a92:	705a      	strb	r2, [r3, #1]
        G_Request.type = NONE;
 8000a94:	4b12      	ldr	r3, [pc, #72]	; (8000ae0 <SetCursorPos+0x64>)
 8000a96:	2200      	movs	r2, #0
 8000a98:	701a      	strb	r2, [r3, #0]

        G_OperationLatchCount++;

    }

}
 8000a9a:	e01c      	b.n	8000ad6 <SetCursorPos+0x5a>
        if(G_Pos.row == 0)
 8000a9c:	4b11      	ldr	r3, [pc, #68]	; (8000ae4 <SetCursorPos+0x68>)
 8000a9e:	781b      	ldrb	r3, [r3, #0]
 8000aa0:	2b00      	cmp	r3, #0
 8000aa2:	d107      	bne.n	8000ab4 <SetCursorPos+0x38>
            WriteCommand(LCD_SET_DDR_ADDRESS + G_Pos.col);
 8000aa4:	4b0f      	ldr	r3, [pc, #60]	; (8000ae4 <SetCursorPos+0x68>)
 8000aa6:	785b      	ldrb	r3, [r3, #1]
 8000aa8:	3b80      	subs	r3, #128	; 0x80
 8000aaa:	b2db      	uxtb	r3, r3
 8000aac:	4618      	mov	r0, r3
 8000aae:	f7ff fe43 	bl	8000738 <WriteCommand>
 8000ab2:	e00a      	b.n	8000aca <SetCursorPos+0x4e>
        else if (G_Pos.row == 1)
 8000ab4:	4b0b      	ldr	r3, [pc, #44]	; (8000ae4 <SetCursorPos+0x68>)
 8000ab6:	781b      	ldrb	r3, [r3, #0]
 8000ab8:	2b01      	cmp	r3, #1
 8000aba:	d106      	bne.n	8000aca <SetCursorPos+0x4e>
            WriteCommand(LCD_SET_DDR_ADDRESS + (G_Pos.col + 0x40) );
 8000abc:	4b09      	ldr	r3, [pc, #36]	; (8000ae4 <SetCursorPos+0x68>)
 8000abe:	785b      	ldrb	r3, [r3, #1]
 8000ac0:	3b40      	subs	r3, #64	; 0x40
 8000ac2:	b2db      	uxtb	r3, r3
 8000ac4:	4618      	mov	r0, r3
 8000ac6:	f7ff fe37 	bl	8000738 <WriteCommand>
        G_OperationLatchCount++;
 8000aca:	4b04      	ldr	r3, [pc, #16]	; (8000adc <SetCursorPos+0x60>)
 8000acc:	781b      	ldrb	r3, [r3, #0]
 8000ace:	3301      	adds	r3, #1
 8000ad0:	b2da      	uxtb	r2, r3
 8000ad2:	4b02      	ldr	r3, [pc, #8]	; (8000adc <SetCursorPos+0x60>)
 8000ad4:	701a      	strb	r2, [r3, #0]
}
 8000ad6:	bf00      	nop
 8000ad8:	bd80      	pop	{r7, pc}
 8000ada:	bf00      	nop
 8000adc:	20000096 	.word	0x20000096
 8000ae0:	20000084 	.word	0x20000084
 8000ae4:	20000094 	.word	0x20000094

08000ae8 <OperationProcess>:


/* If the LCD finished Initialization and is in Operation mode */
static void OperationProcess(void)
{
 8000ae8:	b580      	push	{r7, lr}
 8000aea:	af00      	add	r7, sp, #0
    if(G_Request.type == WRITE_STRING)
 8000aec:	4b0e      	ldr	r3, [pc, #56]	; (8000b28 <OperationProcess+0x40>)
 8000aee:	781b      	ldrb	r3, [r3, #0]
 8000af0:	2b01      	cmp	r3, #1
 8000af2:	d102      	bne.n	8000afa <OperationProcess+0x12>
    {
        WriteString();
 8000af4:	f7ff ff28 	bl	8000948 <WriteString>
    }
    else if(G_Request.type == SET_CURSOR_POS)
    {
        SetCursorPos();
    }
}
 8000af8:	e013      	b.n	8000b22 <OperationProcess+0x3a>
    else if(G_Request.type == WRITE_BUFFER)
 8000afa:	4b0b      	ldr	r3, [pc, #44]	; (8000b28 <OperationProcess+0x40>)
 8000afc:	781b      	ldrb	r3, [r3, #0]
 8000afe:	2b02      	cmp	r3, #2
 8000b00:	d102      	bne.n	8000b08 <OperationProcess+0x20>
        WriteBuffer();
 8000b02:	f7ff ff5f 	bl	80009c4 <WriteBuffer>
}
 8000b06:	e00c      	b.n	8000b22 <OperationProcess+0x3a>
    else if(G_Request.type == CLEAR_SCREEN)
 8000b08:	4b07      	ldr	r3, [pc, #28]	; (8000b28 <OperationProcess+0x40>)
 8000b0a:	781b      	ldrb	r3, [r3, #0]
 8000b0c:	2b03      	cmp	r3, #3
 8000b0e:	d102      	bne.n	8000b16 <OperationProcess+0x2e>
        ClearScreen();
 8000b10:	f7ff ff94 	bl	8000a3c <ClearScreen>
}
 8000b14:	e005      	b.n	8000b22 <OperationProcess+0x3a>
    else if(G_Request.type == SET_CURSOR_POS)
 8000b16:	4b04      	ldr	r3, [pc, #16]	; (8000b28 <OperationProcess+0x40>)
 8000b18:	781b      	ldrb	r3, [r3, #0]
 8000b1a:	2b04      	cmp	r3, #4
 8000b1c:	d101      	bne.n	8000b22 <OperationProcess+0x3a>
        SetCursorPos();
 8000b1e:	f7ff ffad 	bl	8000a7c <SetCursorPos>
}
 8000b22:	bf00      	nop
 8000b24:	bd80      	pop	{r7, pc}
 8000b26:	bf00      	nop
 8000b28:	20000084 	.word	0x20000084

08000b2c <LCD_Update>:
/*                                 IMPLEMENTATION                           	*/
/* ============================================================================ */

/* The runnable of LCD */
void LCD_Update(void)
{
 8000b2c:	b580      	push	{r7, lr}
 8000b2e:	af00      	add	r7, sp, #0
    if(G_LCDState == LCD_INIT)
 8000b30:	4b07      	ldr	r3, [pc, #28]	; (8000b50 <LCD_Update+0x24>)
 8000b32:	781b      	ldrb	r3, [r3, #0]
 8000b34:	2b01      	cmp	r3, #1
 8000b36:	d102      	bne.n	8000b3e <LCD_Update+0x12>
    {
        InitProcess();
 8000b38:	f7ff fe32 	bl	80007a0 <InitProcess>
    }
    else
    {
        /* do nothing */
    }
}
 8000b3c:	e005      	b.n	8000b4a <LCD_Update+0x1e>
    else if(G_LCDState == LCD_OPERATION)
 8000b3e:	4b04      	ldr	r3, [pc, #16]	; (8000b50 <LCD_Update+0x24>)
 8000b40:	781b      	ldrb	r3, [r3, #0]
 8000b42:	2b02      	cmp	r3, #2
 8000b44:	d101      	bne.n	8000b4a <LCD_Update+0x1e>
        OperationProcess();
 8000b46:	f7ff ffcf 	bl	8000ae8 <OperationProcess>
}
 8000b4a:	bf00      	nop
 8000b4c:	bd80      	pop	{r7, pc}
 8000b4e:	bf00      	nop
 8000b50:	20000081 	.word	0x20000081

08000b54 <LCD_Init>:


LCD_ErrorStatus_t LCD_Init(void)
{
 8000b54:	b580      	push	{r7, lr}
 8000b56:	b086      	sub	sp, #24
 8000b58:	af00      	add	r7, sp, #0
    LCD_ErrorStatus_t Ret_ErrorStatus = LCD_OK;
 8000b5a:	2300      	movs	r3, #0
 8000b5c:	75bb      	strb	r3, [r7, #22]
    u8 iter;
    GPIO_Pin_t lcdPin;
    lcdPin.Mode = GPIO_MODE_OP_PP;
 8000b5e:	2301      	movs	r3, #1
 8000b60:	60bb      	str	r3, [r7, #8]
    lcdPin.AF = GPIO_AF_SYSTEM;
 8000b62:	2300      	movs	r3, #0
 8000b64:	613b      	str	r3, [r7, #16]
    lcdPin.Speed = GPIO_SPEED_HIGH;
 8000b66:	2302      	movs	r3, #2
 8000b68:	60fb      	str	r3, [r7, #12]

    /* Initialize the LCD pins */
    for(iter = 0; iter < LCD_PINS_NUM; iter++)
 8000b6a:	2300      	movs	r3, #0
 8000b6c:	75fb      	strb	r3, [r7, #23]
 8000b6e:	e011      	b.n	8000b94 <LCD_Init+0x40>
    {
        lcdPin.Pin = LCD_Pins[iter].Pin;
 8000b70:	7dfb      	ldrb	r3, [r7, #23]
 8000b72:	4a1a      	ldr	r2, [pc, #104]	; (8000bdc <LCD_Init+0x88>)
 8000b74:	00db      	lsls	r3, r3, #3
 8000b76:	4413      	add	r3, r2
 8000b78:	791b      	ldrb	r3, [r3, #4]
 8000b7a:	607b      	str	r3, [r7, #4]
        lcdPin.Port = LCD_Pins[iter].Port;
 8000b7c:	7dfb      	ldrb	r3, [r7, #23]
 8000b7e:	4a17      	ldr	r2, [pc, #92]	; (8000bdc <LCD_Init+0x88>)
 8000b80:	f852 3033 	ldr.w	r3, [r2, r3, lsl #3]
 8000b84:	603b      	str	r3, [r7, #0]

        GPIO_Init(&lcdPin);
 8000b86:	463b      	mov	r3, r7
 8000b88:	4618      	mov	r0, r3
 8000b8a:	f000 f8ed 	bl	8000d68 <GPIO_Init>
    for(iter = 0; iter < LCD_PINS_NUM; iter++)
 8000b8e:	7dfb      	ldrb	r3, [r7, #23]
 8000b90:	3301      	adds	r3, #1
 8000b92:	75fb      	strb	r3, [r7, #23]
 8000b94:	7dfb      	ldrb	r3, [r7, #23]
 8000b96:	2b03      	cmp	r3, #3
 8000b98:	d9ea      	bls.n	8000b70 <LCD_Init+0x1c>
    }

    lcdPin.Pin = LCD_PIN_RS;
 8000b9a:	2308      	movs	r3, #8
 8000b9c:	607b      	str	r3, [r7, #4]
    lcdPin.Port = LCD_PORT_RS;
 8000b9e:	4b10      	ldr	r3, [pc, #64]	; (8000be0 <LCD_Init+0x8c>)
 8000ba0:	603b      	str	r3, [r7, #0]
    GPIO_Init(&lcdPin);
 8000ba2:	463b      	mov	r3, r7
 8000ba4:	4618      	mov	r0, r3
 8000ba6:	f000 f8df 	bl	8000d68 <GPIO_Init>

    lcdPin.Pin = LCD_PIN_RW;
 8000baa:	2309      	movs	r3, #9
 8000bac:	607b      	str	r3, [r7, #4]
    lcdPin.Port = LCD_PORT_RW;
 8000bae:	4b0c      	ldr	r3, [pc, #48]	; (8000be0 <LCD_Init+0x8c>)
 8000bb0:	603b      	str	r3, [r7, #0]
    GPIO_Init(&lcdPin);
 8000bb2:	463b      	mov	r3, r7
 8000bb4:	4618      	mov	r0, r3
 8000bb6:	f000 f8d7 	bl	8000d68 <GPIO_Init>

    lcdPin.Pin = LCD_PIN_E;
 8000bba:	230a      	movs	r3, #10
 8000bbc:	607b      	str	r3, [r7, #4]
    lcdPin.Port = LCD_PORT_E;
 8000bbe:	4b08      	ldr	r3, [pc, #32]	; (8000be0 <LCD_Init+0x8c>)
 8000bc0:	603b      	str	r3, [r7, #0]
    GPIO_Init(&lcdPin);
 8000bc2:	463b      	mov	r3, r7
 8000bc4:	4618      	mov	r0, r3
 8000bc6:	f000 f8cf 	bl	8000d68 <GPIO_Init>


    /* Change LCD state from OFF to Init */
    G_LCDState = LCD_INIT;
 8000bca:	4b06      	ldr	r3, [pc, #24]	; (8000be4 <LCD_Init+0x90>)
 8000bcc:	2201      	movs	r2, #1
 8000bce:	701a      	strb	r2, [r3, #0]

    return Ret_ErrorStatus;
 8000bd0:	7dbb      	ldrb	r3, [r7, #22]
}
 8000bd2:	4618      	mov	r0, r3
 8000bd4:	3718      	adds	r7, #24
 8000bd6:	46bd      	mov	sp, r7
 8000bd8:	bd80      	pop	{r7, pc}
 8000bda:	bf00      	nop
 8000bdc:	08001d3c 	.word	0x08001d3c
 8000be0:	40020000 	.word	0x40020000
 8000be4:	20000081 	.word	0x20000081

08000be8 <LED_Init>:
/* ============================================================================ */
/*                                  IMPLEMENTATION                           	*/
/* ============================================================================ */

LED_ErrorStatus_t LED_Init(void)
{
 8000be8:	b5b0      	push	{r4, r5, r7, lr}
 8000bea:	b086      	sub	sp, #24
 8000bec:	af00      	add	r7, sp, #0
    LED_ErrorStatus_t Ret_ErrorStatus = LED_OK;
 8000bee:	2300      	movs	r3, #0
 8000bf0:	75fb      	strb	r3, [r7, #23]
    GPIO_Pin_t Local_Led;
    u8 Local_iter;
    Local_Led.Mode = GPIO_MODE_OP_PP;
 8000bf2:	2301      	movs	r3, #1
 8000bf4:	60bb      	str	r3, [r7, #8]
    Local_Led.Speed = GPIO_SPEED_HIGH;
 8000bf6:	2302      	movs	r3, #2
 8000bf8:	60fb      	str	r3, [r7, #12]
    Local_Led.AF = GPIO_AF_SYSTEM;
 8000bfa:	2300      	movs	r3, #0
 8000bfc:	613b      	str	r3, [r7, #16]

    for(Local_iter = 0; Local_iter < _LED_NUM; Local_iter++)
 8000bfe:	2300      	movs	r3, #0
 8000c00:	75bb      	strb	r3, [r7, #22]
 8000c02:	e060      	b.n	8000cc6 <LED_Init+0xde>
    {
        if(!IS_LED_STATE(Leds[Local_iter].InitState))
 8000c04:	7dba      	ldrb	r2, [r7, #22]
 8000c06:	4935      	ldr	r1, [pc, #212]	; (8000cdc <LED_Init+0xf4>)
 8000c08:	4613      	mov	r3, r2
 8000c0a:	005b      	lsls	r3, r3, #1
 8000c0c:	4413      	add	r3, r2
 8000c0e:	009b      	lsls	r3, r3, #2
 8000c10:	440b      	add	r3, r1
 8000c12:	3309      	adds	r3, #9
 8000c14:	781b      	ldrb	r3, [r3, #0]
 8000c16:	2b01      	cmp	r3, #1
 8000c18:	d00d      	beq.n	8000c36 <LED_Init+0x4e>
 8000c1a:	7dba      	ldrb	r2, [r7, #22]
 8000c1c:	492f      	ldr	r1, [pc, #188]	; (8000cdc <LED_Init+0xf4>)
 8000c1e:	4613      	mov	r3, r2
 8000c20:	005b      	lsls	r3, r3, #1
 8000c22:	4413      	add	r3, r2
 8000c24:	009b      	lsls	r3, r3, #2
 8000c26:	440b      	add	r3, r1
 8000c28:	3309      	adds	r3, #9
 8000c2a:	781b      	ldrb	r3, [r3, #0]
 8000c2c:	2b00      	cmp	r3, #0
 8000c2e:	d002      	beq.n	8000c36 <LED_Init+0x4e>
        {
            Ret_ErrorStatus = LED_INVALID_STATE;
 8000c30:	2302      	movs	r3, #2
 8000c32:	75fb      	strb	r3, [r7, #23]
 8000c34:	e041      	b.n	8000cba <LED_Init+0xd2>
        }
        else
        {
            Local_Led.Port = Leds[Local_iter].Port;
 8000c36:	7dba      	ldrb	r2, [r7, #22]
 8000c38:	4928      	ldr	r1, [pc, #160]	; (8000cdc <LED_Init+0xf4>)
 8000c3a:	4613      	mov	r3, r2
 8000c3c:	005b      	lsls	r3, r3, #1
 8000c3e:	4413      	add	r3, r2
 8000c40:	009b      	lsls	r3, r3, #2
 8000c42:	440b      	add	r3, r1
 8000c44:	681b      	ldr	r3, [r3, #0]
 8000c46:	603b      	str	r3, [r7, #0]
            Local_Led.Pin = Leds[Local_iter].Pin;
 8000c48:	7dba      	ldrb	r2, [r7, #22]
 8000c4a:	4924      	ldr	r1, [pc, #144]	; (8000cdc <LED_Init+0xf4>)
 8000c4c:	4613      	mov	r3, r2
 8000c4e:	005b      	lsls	r3, r3, #1
 8000c50:	4413      	add	r3, r2
 8000c52:	009b      	lsls	r3, r3, #2
 8000c54:	440b      	add	r3, r1
 8000c56:	3304      	adds	r3, #4
 8000c58:	681b      	ldr	r3, [r3, #0]
 8000c5a:	607b      	str	r3, [r7, #4]
            Ret_ErrorStatus = GPIO_Init(&Local_Led);
 8000c5c:	463b      	mov	r3, r7
 8000c5e:	4618      	mov	r0, r3
 8000c60:	f000 f882 	bl	8000d68 <GPIO_Init>
 8000c64:	4603      	mov	r3, r0
 8000c66:	75fb      	strb	r3, [r7, #23]
            GPIO_SetPinState(Leds[Local_iter].Port, Leds[Local_iter].Pin, Leds[Local_iter].InitState ^ Leds[Local_iter].Connection);
 8000c68:	7dba      	ldrb	r2, [r7, #22]
 8000c6a:	491c      	ldr	r1, [pc, #112]	; (8000cdc <LED_Init+0xf4>)
 8000c6c:	4613      	mov	r3, r2
 8000c6e:	005b      	lsls	r3, r3, #1
 8000c70:	4413      	add	r3, r2
 8000c72:	009b      	lsls	r3, r3, #2
 8000c74:	440b      	add	r3, r1
 8000c76:	6818      	ldr	r0, [r3, #0]
 8000c78:	7dba      	ldrb	r2, [r7, #22]
 8000c7a:	4918      	ldr	r1, [pc, #96]	; (8000cdc <LED_Init+0xf4>)
 8000c7c:	4613      	mov	r3, r2
 8000c7e:	005b      	lsls	r3, r3, #1
 8000c80:	4413      	add	r3, r2
 8000c82:	009b      	lsls	r3, r3, #2
 8000c84:	440b      	add	r3, r1
 8000c86:	3304      	adds	r3, #4
 8000c88:	681c      	ldr	r4, [r3, #0]
 8000c8a:	7dba      	ldrb	r2, [r7, #22]
 8000c8c:	4913      	ldr	r1, [pc, #76]	; (8000cdc <LED_Init+0xf4>)
 8000c8e:	4613      	mov	r3, r2
 8000c90:	005b      	lsls	r3, r3, #1
 8000c92:	4413      	add	r3, r2
 8000c94:	009b      	lsls	r3, r3, #2
 8000c96:	440b      	add	r3, r1
 8000c98:	3309      	adds	r3, #9
 8000c9a:	7819      	ldrb	r1, [r3, #0]
 8000c9c:	7dba      	ldrb	r2, [r7, #22]
 8000c9e:	4d0f      	ldr	r5, [pc, #60]	; (8000cdc <LED_Init+0xf4>)
 8000ca0:	4613      	mov	r3, r2
 8000ca2:	005b      	lsls	r3, r3, #1
 8000ca4:	4413      	add	r3, r2
 8000ca6:	009b      	lsls	r3, r3, #2
 8000ca8:	442b      	add	r3, r5
 8000caa:	3308      	adds	r3, #8
 8000cac:	781b      	ldrb	r3, [r3, #0]
 8000cae:	404b      	eors	r3, r1
 8000cb0:	b2db      	uxtb	r3, r3
 8000cb2:	461a      	mov	r2, r3
 8000cb4:	4621      	mov	r1, r4
 8000cb6:	f000 f9f9 	bl	80010ac <GPIO_SetPinState>
        }

        if(Ret_ErrorStatus != LED_OK)
 8000cba:	7dfb      	ldrb	r3, [r7, #23]
 8000cbc:	2b00      	cmp	r3, #0
 8000cbe:	d106      	bne.n	8000cce <LED_Init+0xe6>
    for(Local_iter = 0; Local_iter < _LED_NUM; Local_iter++)
 8000cc0:	7dbb      	ldrb	r3, [r7, #22]
 8000cc2:	3301      	adds	r3, #1
 8000cc4:	75bb      	strb	r3, [r7, #22]
 8000cc6:	7dbb      	ldrb	r3, [r7, #22]
 8000cc8:	2b01      	cmp	r3, #1
 8000cca:	d99b      	bls.n	8000c04 <LED_Init+0x1c>
 8000ccc:	e000      	b.n	8000cd0 <LED_Init+0xe8>
        {
            break;
 8000cce:	bf00      	nop
        }
    }

    return Ret_ErrorStatus;
 8000cd0:	7dfb      	ldrb	r3, [r7, #23]
}
 8000cd2:	4618      	mov	r0, r3
 8000cd4:	3718      	adds	r7, #24
 8000cd6:	46bd      	mov	sp, r7
 8000cd8:	bdb0      	pop	{r4, r5, r7, pc}
 8000cda:	bf00      	nop
 8000cdc:	08001d5c 	.word	0x08001d5c

08000ce0 <LED_SetState>:


LED_ErrorStatus_t LED_SetState(LED_ID_t Copy_LedID, u8 Copy_State)
{
 8000ce0:	b590      	push	{r4, r7, lr}
 8000ce2:	b085      	sub	sp, #20
 8000ce4:	af00      	add	r7, sp, #0
 8000ce6:	4603      	mov	r3, r0
 8000ce8:	460a      	mov	r2, r1
 8000cea:	71fb      	strb	r3, [r7, #7]
 8000cec:	4613      	mov	r3, r2
 8000cee:	71bb      	strb	r3, [r7, #6]
    LED_ErrorStatus_t Ret_ErrorStatus = LED_OK;
 8000cf0:	2300      	movs	r3, #0
 8000cf2:	73fb      	strb	r3, [r7, #15]

    if(Copy_LedID >= _LED_NUM)
 8000cf4:	79fb      	ldrb	r3, [r7, #7]
 8000cf6:	2b01      	cmp	r3, #1
 8000cf8:	d902      	bls.n	8000d00 <LED_SetState+0x20>
    {
        Ret_ErrorStatus = LED_INVALID_ID;
 8000cfa:	2303      	movs	r3, #3
 8000cfc:	73fb      	strb	r3, [r7, #15]
 8000cfe:	e007      	b.n	8000d10 <LED_SetState+0x30>
    }
    else if(!IS_LED_STATE(Copy_State))
 8000d00:	79bb      	ldrb	r3, [r7, #6]
 8000d02:	2b01      	cmp	r3, #1
 8000d04:	d004      	beq.n	8000d10 <LED_SetState+0x30>
 8000d06:	79bb      	ldrb	r3, [r7, #6]
 8000d08:	2b00      	cmp	r3, #0
 8000d0a:	d001      	beq.n	8000d10 <LED_SetState+0x30>
    {
        Ret_ErrorStatus = LED_INVALID_STATE;
 8000d0c:	2302      	movs	r3, #2
 8000d0e:	73fb      	strb	r3, [r7, #15]
    else
    {
        /* do nothing */
    }

    if(Ret_ErrorStatus == LED_OK)
 8000d10:	7bfb      	ldrb	r3, [r7, #15]
 8000d12:	2b00      	cmp	r3, #0
 8000d14:	d121      	bne.n	8000d5a <LED_SetState+0x7a>
    {
        Ret_ErrorStatus = GPIO_SetPinState(Leds[Copy_LedID].Port, Leds[Copy_LedID].Pin, Copy_State ^ Leds[Copy_LedID].Connection);
 8000d16:	79fa      	ldrb	r2, [r7, #7]
 8000d18:	4912      	ldr	r1, [pc, #72]	; (8000d64 <LED_SetState+0x84>)
 8000d1a:	4613      	mov	r3, r2
 8000d1c:	005b      	lsls	r3, r3, #1
 8000d1e:	4413      	add	r3, r2
 8000d20:	009b      	lsls	r3, r3, #2
 8000d22:	440b      	add	r3, r1
 8000d24:	6818      	ldr	r0, [r3, #0]
 8000d26:	79fa      	ldrb	r2, [r7, #7]
 8000d28:	490e      	ldr	r1, [pc, #56]	; (8000d64 <LED_SetState+0x84>)
 8000d2a:	4613      	mov	r3, r2
 8000d2c:	005b      	lsls	r3, r3, #1
 8000d2e:	4413      	add	r3, r2
 8000d30:	009b      	lsls	r3, r3, #2
 8000d32:	440b      	add	r3, r1
 8000d34:	3304      	adds	r3, #4
 8000d36:	6819      	ldr	r1, [r3, #0]
 8000d38:	79fa      	ldrb	r2, [r7, #7]
 8000d3a:	4c0a      	ldr	r4, [pc, #40]	; (8000d64 <LED_SetState+0x84>)
 8000d3c:	4613      	mov	r3, r2
 8000d3e:	005b      	lsls	r3, r3, #1
 8000d40:	4413      	add	r3, r2
 8000d42:	009b      	lsls	r3, r3, #2
 8000d44:	4423      	add	r3, r4
 8000d46:	3308      	adds	r3, #8
 8000d48:	781a      	ldrb	r2, [r3, #0]
 8000d4a:	79bb      	ldrb	r3, [r7, #6]
 8000d4c:	4053      	eors	r3, r2
 8000d4e:	b2db      	uxtb	r3, r3
 8000d50:	461a      	mov	r2, r3
 8000d52:	f000 f9ab 	bl	80010ac <GPIO_SetPinState>
 8000d56:	4603      	mov	r3, r0
 8000d58:	73fb      	strb	r3, [r7, #15]
    }

    return Ret_ErrorStatus;
 8000d5a:	7bfb      	ldrb	r3, [r7, #15]
}
 8000d5c:	4618      	mov	r0, r3
 8000d5e:	3714      	adds	r7, #20
 8000d60:	46bd      	mov	sp, r7
 8000d62:	bd90      	pop	{r4, r7, pc}
 8000d64:	08001d5c 	.word	0x08001d5c

08000d68 <GPIO_Init>:
/* ========================================================================================= */
/*                                      IMPLEMENTATION                                       */
/* ========================================================================================= */

GPIO_ErrorStatus_t GPIO_Init(GPIO_Pin_t* ADD_Config)
{
 8000d68:	e92d 0ff0 	stmdb	sp!, {r4, r5, r6, r7, r8, r9, sl, fp}
 8000d6c:	b08c      	sub	sp, #48	; 0x30
 8000d6e:	af00      	add	r7, sp, #0
 8000d70:	61f8      	str	r0, [r7, #28]
    GPIO_ErrorStatus_t Ret_ErrorStatus = GPIO_OK;
 8000d72:	2300      	movs	r3, #0
 8000d74:	f887 302f 	strb.w	r3, [r7, #47]	; 0x2f
    u32 Local_TmpReg;
    u64 Local_AFTmpReg; /* AFH and AFL are treated as one 64bit Register */

    if(ADD_Config == NULL)
 8000d78:	69fb      	ldr	r3, [r7, #28]
 8000d7a:	2b00      	cmp	r3, #0
 8000d7c:	d103      	bne.n	8000d86 <GPIO_Init+0x1e>
    {
        Ret_ErrorStatus = GPIO_NULLPTR;
 8000d7e:	2302      	movs	r3, #2
 8000d80:	f887 302f 	strb.w	r3, [r7, #47]	; 0x2f
 8000d84:	e0af      	b.n	8000ee6 <GPIO_Init+0x17e>
    }
    else if(!IS_GPIO_PORT(ADD_Config->Port))
 8000d86:	69fb      	ldr	r3, [r7, #28]
 8000d88:	681b      	ldr	r3, [r3, #0]
 8000d8a:	4a38      	ldr	r2, [pc, #224]	; (8000e6c <GPIO_Init+0x104>)
 8000d8c:	4293      	cmp	r3, r2
 8000d8e:	d00d      	beq.n	8000dac <GPIO_Init+0x44>
 8000d90:	69fb      	ldr	r3, [r7, #28]
 8000d92:	681b      	ldr	r3, [r3, #0]
 8000d94:	4a36      	ldr	r2, [pc, #216]	; (8000e70 <GPIO_Init+0x108>)
 8000d96:	4293      	cmp	r3, r2
 8000d98:	d008      	beq.n	8000dac <GPIO_Init+0x44>
 8000d9a:	69fb      	ldr	r3, [r7, #28]
 8000d9c:	681b      	ldr	r3, [r3, #0]
 8000d9e:	4a35      	ldr	r2, [pc, #212]	; (8000e74 <GPIO_Init+0x10c>)
 8000da0:	4293      	cmp	r3, r2
 8000da2:	d003      	beq.n	8000dac <GPIO_Init+0x44>
    {
        Ret_ErrorStatus = GPIO_INVALID_PORT;
 8000da4:	2305      	movs	r3, #5
 8000da6:	f887 302f 	strb.w	r3, [r7, #47]	; 0x2f
 8000daa:	e09c      	b.n	8000ee6 <GPIO_Init+0x17e>
    }
    else if(!IS_GPIO_PIN(ADD_Config->Pin))
 8000dac:	69fb      	ldr	r3, [r7, #28]
 8000dae:	685b      	ldr	r3, [r3, #4]
 8000db0:	2b0f      	cmp	r3, #15
 8000db2:	d903      	bls.n	8000dbc <GPIO_Init+0x54>
    {
        Ret_ErrorStatus = GPIO_INVALID_PIN;
 8000db4:	2306      	movs	r3, #6
 8000db6:	f887 302f 	strb.w	r3, [r7, #47]	; 0x2f
 8000dba:	e094      	b.n	8000ee6 <GPIO_Init+0x17e>
    }
    else if(!IS_GPIO_MODE(ADD_Config->Mode))
 8000dbc:	69fb      	ldr	r3, [r7, #28]
 8000dbe:	689b      	ldr	r3, [r3, #8]
 8000dc0:	2b00      	cmp	r3, #0
 8000dc2:	d04b      	beq.n	8000e5c <GPIO_Init+0xf4>
 8000dc4:	69fb      	ldr	r3, [r7, #28]
 8000dc6:	689b      	ldr	r3, [r3, #8]
 8000dc8:	2b00      	cmp	r3, #0
 8000dca:	d047      	beq.n	8000e5c <GPIO_Init+0xf4>
 8000dcc:	69fb      	ldr	r3, [r7, #28]
 8000dce:	689b      	ldr	r3, [r3, #8]
 8000dd0:	2b08      	cmp	r3, #8
 8000dd2:	d043      	beq.n	8000e5c <GPIO_Init+0xf4>
 8000dd4:	69fb      	ldr	r3, [r7, #28]
 8000dd6:	689b      	ldr	r3, [r3, #8]
 8000dd8:	2b10      	cmp	r3, #16
 8000dda:	d03f      	beq.n	8000e5c <GPIO_Init+0xf4>
 8000ddc:	69fb      	ldr	r3, [r7, #28]
 8000dde:	689b      	ldr	r3, [r3, #8]
 8000de0:	2b01      	cmp	r3, #1
 8000de2:	d03b      	beq.n	8000e5c <GPIO_Init+0xf4>
 8000de4:	69fb      	ldr	r3, [r7, #28]
 8000de6:	689b      	ldr	r3, [r3, #8]
 8000de8:	2b01      	cmp	r3, #1
 8000dea:	d037      	beq.n	8000e5c <GPIO_Init+0xf4>
 8000dec:	69fb      	ldr	r3, [r7, #28]
 8000dee:	689b      	ldr	r3, [r3, #8]
 8000df0:	2b09      	cmp	r3, #9
 8000df2:	d033      	beq.n	8000e5c <GPIO_Init+0xf4>
 8000df4:	69fb      	ldr	r3, [r7, #28]
 8000df6:	689b      	ldr	r3, [r3, #8]
 8000df8:	2b11      	cmp	r3, #17
 8000dfa:	d02f      	beq.n	8000e5c <GPIO_Init+0xf4>
 8000dfc:	69fb      	ldr	r3, [r7, #28]
 8000dfe:	689b      	ldr	r3, [r3, #8]
 8000e00:	2b05      	cmp	r3, #5
 8000e02:	d02b      	beq.n	8000e5c <GPIO_Init+0xf4>
 8000e04:	69fb      	ldr	r3, [r7, #28]
 8000e06:	689b      	ldr	r3, [r3, #8]
 8000e08:	2b0d      	cmp	r3, #13
 8000e0a:	d027      	beq.n	8000e5c <GPIO_Init+0xf4>
 8000e0c:	69fb      	ldr	r3, [r7, #28]
 8000e0e:	689b      	ldr	r3, [r3, #8]
 8000e10:	2b15      	cmp	r3, #21
 8000e12:	d023      	beq.n	8000e5c <GPIO_Init+0xf4>
 8000e14:	69fb      	ldr	r3, [r7, #28]
 8000e16:	689b      	ldr	r3, [r3, #8]
 8000e18:	2b02      	cmp	r3, #2
 8000e1a:	d01f      	beq.n	8000e5c <GPIO_Init+0xf4>
 8000e1c:	69fb      	ldr	r3, [r7, #28]
 8000e1e:	689b      	ldr	r3, [r3, #8]
 8000e20:	2b02      	cmp	r3, #2
 8000e22:	d01b      	beq.n	8000e5c <GPIO_Init+0xf4>
 8000e24:	69fb      	ldr	r3, [r7, #28]
 8000e26:	689b      	ldr	r3, [r3, #8]
 8000e28:	2b0a      	cmp	r3, #10
 8000e2a:	d017      	beq.n	8000e5c <GPIO_Init+0xf4>
 8000e2c:	69fb      	ldr	r3, [r7, #28]
 8000e2e:	689b      	ldr	r3, [r3, #8]
 8000e30:	2b12      	cmp	r3, #18
 8000e32:	d013      	beq.n	8000e5c <GPIO_Init+0xf4>
 8000e34:	69fb      	ldr	r3, [r7, #28]
 8000e36:	689b      	ldr	r3, [r3, #8]
 8000e38:	2b06      	cmp	r3, #6
 8000e3a:	d00f      	beq.n	8000e5c <GPIO_Init+0xf4>
 8000e3c:	69fb      	ldr	r3, [r7, #28]
 8000e3e:	689b      	ldr	r3, [r3, #8]
 8000e40:	2b0e      	cmp	r3, #14
 8000e42:	d00b      	beq.n	8000e5c <GPIO_Init+0xf4>
 8000e44:	69fb      	ldr	r3, [r7, #28]
 8000e46:	689b      	ldr	r3, [r3, #8]
 8000e48:	2b16      	cmp	r3, #22
 8000e4a:	d007      	beq.n	8000e5c <GPIO_Init+0xf4>
 8000e4c:	69fb      	ldr	r3, [r7, #28]
 8000e4e:	689b      	ldr	r3, [r3, #8]
 8000e50:	2b03      	cmp	r3, #3
 8000e52:	d003      	beq.n	8000e5c <GPIO_Init+0xf4>
    {
        Ret_ErrorStatus = GPIO_INVALID_MODE;
 8000e54:	2303      	movs	r3, #3
 8000e56:	f887 302f 	strb.w	r3, [r7, #47]	; 0x2f
 8000e5a:	e044      	b.n	8000ee6 <GPIO_Init+0x17e>
    }
    else if(!IS_GPIO_SPEED(ADD_Config->Speed))
 8000e5c:	69fb      	ldr	r3, [r7, #28]
 8000e5e:	68db      	ldr	r3, [r3, #12]
 8000e60:	2b03      	cmp	r3, #3
 8000e62:	d909      	bls.n	8000e78 <GPIO_Init+0x110>
    {
        Ret_ErrorStatus = GPIO_INVALID_SPEED;
 8000e64:	2307      	movs	r3, #7
 8000e66:	f887 302f 	strb.w	r3, [r7, #47]	; 0x2f
 8000e6a:	e03c      	b.n	8000ee6 <GPIO_Init+0x17e>
 8000e6c:	40020000 	.word	0x40020000
 8000e70:	40020400 	.word	0x40020400
 8000e74:	40020800 	.word	0x40020800
    }
    else if(!IS_GPIO_AF(ADD_Config->AF))
 8000e78:	69fb      	ldr	r3, [r7, #28]
 8000e7a:	691b      	ldr	r3, [r3, #16]
 8000e7c:	2b00      	cmp	r3, #0
 8000e7e:	d032      	beq.n	8000ee6 <GPIO_Init+0x17e>
 8000e80:	69fb      	ldr	r3, [r7, #28]
 8000e82:	691b      	ldr	r3, [r3, #16]
 8000e84:	2b01      	cmp	r3, #1
 8000e86:	d02e      	beq.n	8000ee6 <GPIO_Init+0x17e>
 8000e88:	69fb      	ldr	r3, [r7, #28]
 8000e8a:	691b      	ldr	r3, [r3, #16]
 8000e8c:	2b02      	cmp	r3, #2
 8000e8e:	d02a      	beq.n	8000ee6 <GPIO_Init+0x17e>
 8000e90:	69fb      	ldr	r3, [r7, #28]
 8000e92:	691b      	ldr	r3, [r3, #16]
 8000e94:	2b03      	cmp	r3, #3
 8000e96:	d026      	beq.n	8000ee6 <GPIO_Init+0x17e>
 8000e98:	69fb      	ldr	r3, [r7, #28]
 8000e9a:	691b      	ldr	r3, [r3, #16]
 8000e9c:	2b04      	cmp	r3, #4
 8000e9e:	d022      	beq.n	8000ee6 <GPIO_Init+0x17e>
 8000ea0:	69fb      	ldr	r3, [r7, #28]
 8000ea2:	691b      	ldr	r3, [r3, #16]
 8000ea4:	2b05      	cmp	r3, #5
 8000ea6:	d01e      	beq.n	8000ee6 <GPIO_Init+0x17e>
 8000ea8:	69fb      	ldr	r3, [r7, #28]
 8000eaa:	691b      	ldr	r3, [r3, #16]
 8000eac:	2b06      	cmp	r3, #6
 8000eae:	d01a      	beq.n	8000ee6 <GPIO_Init+0x17e>
 8000eb0:	69fb      	ldr	r3, [r7, #28]
 8000eb2:	691b      	ldr	r3, [r3, #16]
 8000eb4:	2b07      	cmp	r3, #7
 8000eb6:	d016      	beq.n	8000ee6 <GPIO_Init+0x17e>
 8000eb8:	69fb      	ldr	r3, [r7, #28]
 8000eba:	691b      	ldr	r3, [r3, #16]
 8000ebc:	2b08      	cmp	r3, #8
 8000ebe:	d012      	beq.n	8000ee6 <GPIO_Init+0x17e>
 8000ec0:	69fb      	ldr	r3, [r7, #28]
 8000ec2:	691b      	ldr	r3, [r3, #16]
 8000ec4:	2b09      	cmp	r3, #9
 8000ec6:	d00e      	beq.n	8000ee6 <GPIO_Init+0x17e>
 8000ec8:	69fb      	ldr	r3, [r7, #28]
 8000eca:	691b      	ldr	r3, [r3, #16]
 8000ecc:	2b0a      	cmp	r3, #10
 8000ece:	d00a      	beq.n	8000ee6 <GPIO_Init+0x17e>
 8000ed0:	69fb      	ldr	r3, [r7, #28]
 8000ed2:	691b      	ldr	r3, [r3, #16]
 8000ed4:	2b0c      	cmp	r3, #12
 8000ed6:	d006      	beq.n	8000ee6 <GPIO_Init+0x17e>
 8000ed8:	69fb      	ldr	r3, [r7, #28]
 8000eda:	691b      	ldr	r3, [r3, #16]
 8000edc:	2b0f      	cmp	r3, #15
 8000ede:	d002      	beq.n	8000ee6 <GPIO_Init+0x17e>
    {
        Ret_ErrorStatus = GPIO_INVALID_AF;
 8000ee0:	2304      	movs	r3, #4
 8000ee2:	f887 302f 	strb.w	r3, [r7, #47]	; 0x2f
    else
    {
        /* do nothing */
    }

    if(Ret_ErrorStatus == GPIO_OK)
 8000ee6:	f897 302f 	ldrb.w	r3, [r7, #47]	; 0x2f
 8000eea:	2b00      	cmp	r3, #0
 8000eec:	f040 80d5 	bne.w	800109a <GPIO_Init+0x332>
    {
        /* Set the Pin Mode (Input, Output, AF, Analog)*/
        Local_TmpReg = ((GPIO_Registers_t *)(ADD_Config->Port))->MODER;
 8000ef0:	69fb      	ldr	r3, [r7, #28]
 8000ef2:	681b      	ldr	r3, [r3, #0]
 8000ef4:	681b      	ldr	r3, [r3, #0]
 8000ef6:	62bb      	str	r3, [r7, #40]	; 0x28
        Local_TmpReg &= ~( GPIO_2_BIT_MASK << (ADD_Config->Pin * GPIO_PIN_OFFSET_2)) ;
 8000ef8:	69fb      	ldr	r3, [r7, #28]
 8000efa:	685b      	ldr	r3, [r3, #4]
 8000efc:	005b      	lsls	r3, r3, #1
 8000efe:	2203      	movs	r2, #3
 8000f00:	fa02 f303 	lsl.w	r3, r2, r3
 8000f04:	43db      	mvns	r3, r3
 8000f06:	461a      	mov	r2, r3
 8000f08:	6abb      	ldr	r3, [r7, #40]	; 0x28
 8000f0a:	4013      	ands	r3, r2
 8000f0c:	62bb      	str	r3, [r7, #40]	; 0x28
        Local_TmpReg |= ( (ADD_Config->Mode & GPIO_MODE_MASK) << (ADD_Config->Pin * GPIO_PIN_OFFSET_2) );
 8000f0e:	69fb      	ldr	r3, [r7, #28]
 8000f10:	689b      	ldr	r3, [r3, #8]
 8000f12:	f003 0203 	and.w	r2, r3, #3
 8000f16:	69fb      	ldr	r3, [r7, #28]
 8000f18:	685b      	ldr	r3, [r3, #4]
 8000f1a:	005b      	lsls	r3, r3, #1
 8000f1c:	fa02 f303 	lsl.w	r3, r2, r3
 8000f20:	6aba      	ldr	r2, [r7, #40]	; 0x28
 8000f22:	4313      	orrs	r3, r2
 8000f24:	62bb      	str	r3, [r7, #40]	; 0x28
        ((GPIO_Registers_t *)(ADD_Config->Port))->MODER = Local_TmpReg;
 8000f26:	69fb      	ldr	r3, [r7, #28]
 8000f28:	681b      	ldr	r3, [r3, #0]
 8000f2a:	6aba      	ldr	r2, [r7, #40]	; 0x28
 8000f2c:	601a      	str	r2, [r3, #0]

        /* Set the Pin output type (Push Pull or Open Drain)*/
        Local_TmpReg = ((GPIO_Registers_t *)(ADD_Config->Port))->OTYPER;
 8000f2e:	69fb      	ldr	r3, [r7, #28]
 8000f30:	681b      	ldr	r3, [r3, #0]
 8000f32:	685b      	ldr	r3, [r3, #4]
 8000f34:	62bb      	str	r3, [r7, #40]	; 0x28
        Local_TmpReg &= ~ ( 1 << (ADD_Config->Pin) );
 8000f36:	69fb      	ldr	r3, [r7, #28]
 8000f38:	685b      	ldr	r3, [r3, #4]
 8000f3a:	2201      	movs	r2, #1
 8000f3c:	fa02 f303 	lsl.w	r3, r2, r3
 8000f40:	43db      	mvns	r3, r3
 8000f42:	461a      	mov	r2, r3
 8000f44:	6abb      	ldr	r3, [r7, #40]	; 0x28
 8000f46:	4013      	ands	r3, r2
 8000f48:	62bb      	str	r3, [r7, #40]	; 0x28
        Local_TmpReg |= ( ((ADD_Config->Mode & GPIO_OTYPE_MASK) >> GPIO_OTYPE_POS_IN_MODE) << (ADD_Config->Pin) );
 8000f4a:	69fb      	ldr	r3, [r7, #28]
 8000f4c:	689b      	ldr	r3, [r3, #8]
 8000f4e:	089b      	lsrs	r3, r3, #2
 8000f50:	f003 0201 	and.w	r2, r3, #1
 8000f54:	69fb      	ldr	r3, [r7, #28]
 8000f56:	685b      	ldr	r3, [r3, #4]
 8000f58:	fa02 f303 	lsl.w	r3, r2, r3
 8000f5c:	6aba      	ldr	r2, [r7, #40]	; 0x28
 8000f5e:	4313      	orrs	r3, r2
 8000f60:	62bb      	str	r3, [r7, #40]	; 0x28
        ((GPIO_Registers_t *)(ADD_Config->Port))->OTYPER = Local_TmpReg;
 8000f62:	69fb      	ldr	r3, [r7, #28]
 8000f64:	681b      	ldr	r3, [r3, #0]
 8000f66:	6aba      	ldr	r2, [r7, #40]	; 0x28
 8000f68:	605a      	str	r2, [r3, #4]

        /* Set pin pullup/pulldown/floating */
        Local_TmpReg = ((GPIO_Registers_t *)(ADD_Config->Port))->PUPDR;
 8000f6a:	69fb      	ldr	r3, [r7, #28]
 8000f6c:	681b      	ldr	r3, [r3, #0]
 8000f6e:	68db      	ldr	r3, [r3, #12]
 8000f70:	62bb      	str	r3, [r7, #40]	; 0x28
        Local_TmpReg &= ~( (GPIO_2_BIT_MASK)<< (ADD_Config->Pin*GPIO_PIN_OFFSET_2) );
 8000f72:	69fb      	ldr	r3, [r7, #28]
 8000f74:	685b      	ldr	r3, [r3, #4]
 8000f76:	005b      	lsls	r3, r3, #1
 8000f78:	2203      	movs	r2, #3
 8000f7a:	fa02 f303 	lsl.w	r3, r2, r3
 8000f7e:	43db      	mvns	r3, r3
 8000f80:	461a      	mov	r2, r3
 8000f82:	6abb      	ldr	r3, [r7, #40]	; 0x28
 8000f84:	4013      	ands	r3, r2
 8000f86:	62bb      	str	r3, [r7, #40]	; 0x28
        Local_TmpReg |= ( ((ADD_Config->Mode & GPIO_PUPD_MASK) >> GPIO_PUPD_POS_IN_MODE) << (ADD_Config->Pin * GPIO_PIN_OFFSET_2) );
 8000f88:	69fb      	ldr	r3, [r7, #28]
 8000f8a:	689b      	ldr	r3, [r3, #8]
 8000f8c:	08db      	lsrs	r3, r3, #3
 8000f8e:	f003 0203 	and.w	r2, r3, #3
 8000f92:	69fb      	ldr	r3, [r7, #28]
 8000f94:	685b      	ldr	r3, [r3, #4]
 8000f96:	005b      	lsls	r3, r3, #1
 8000f98:	fa02 f303 	lsl.w	r3, r2, r3
 8000f9c:	6aba      	ldr	r2, [r7, #40]	; 0x28
 8000f9e:	4313      	orrs	r3, r2
 8000fa0:	62bb      	str	r3, [r7, #40]	; 0x28
        ((GPIO_Registers_t *)(ADD_Config->Port))->PUPDR = Local_TmpReg;
 8000fa2:	69fb      	ldr	r3, [r7, #28]
 8000fa4:	681b      	ldr	r3, [r3, #0]
 8000fa6:	6aba      	ldr	r2, [r7, #40]	; 0x28
 8000fa8:	60da      	str	r2, [r3, #12]

        /* Set Pin speed */
        Local_TmpReg = ((GPIO_Registers_t *)(ADD_Config->Port))->OSPEEDR;
 8000faa:	69fb      	ldr	r3, [r7, #28]
 8000fac:	681b      	ldr	r3, [r3, #0]
 8000fae:	689b      	ldr	r3, [r3, #8]
 8000fb0:	62bb      	str	r3, [r7, #40]	; 0x28
        Local_TmpReg &= ~( (GPIO_2_BIT_MASK)<< (ADD_Config->Pin*GPIO_PIN_OFFSET_2) );
 8000fb2:	69fb      	ldr	r3, [r7, #28]
 8000fb4:	685b      	ldr	r3, [r3, #4]
 8000fb6:	005b      	lsls	r3, r3, #1
 8000fb8:	2203      	movs	r2, #3
 8000fba:	fa02 f303 	lsl.w	r3, r2, r3
 8000fbe:	43db      	mvns	r3, r3
 8000fc0:	461a      	mov	r2, r3
 8000fc2:	6abb      	ldr	r3, [r7, #40]	; 0x28
 8000fc4:	4013      	ands	r3, r2
 8000fc6:	62bb      	str	r3, [r7, #40]	; 0x28
        Local_TmpReg |= ( (ADD_Config->Speed) << (ADD_Config->Pin * GPIO_PIN_OFFSET_2) );
 8000fc8:	69fb      	ldr	r3, [r7, #28]
 8000fca:	68da      	ldr	r2, [r3, #12]
 8000fcc:	69fb      	ldr	r3, [r7, #28]
 8000fce:	685b      	ldr	r3, [r3, #4]
 8000fd0:	005b      	lsls	r3, r3, #1
 8000fd2:	fa02 f303 	lsl.w	r3, r2, r3
 8000fd6:	6aba      	ldr	r2, [r7, #40]	; 0x28
 8000fd8:	4313      	orrs	r3, r2
 8000fda:	62bb      	str	r3, [r7, #40]	; 0x28
        ((GPIO_Registers_t *)(ADD_Config->Port))->OSPEEDR = Local_TmpReg;
 8000fdc:	69fb      	ldr	r3, [r7, #28]
 8000fde:	681b      	ldr	r3, [r3, #0]
 8000fe0:	6aba      	ldr	r2, [r7, #40]	; 0x28
 8000fe2:	609a      	str	r2, [r3, #8]


        /* Set AF */
        Local_AFTmpReg = ((GPIO_Registers_t *)(ADD_Config->Port))->AFR;
 8000fe4:	69fb      	ldr	r3, [r7, #28]
 8000fe6:	681b      	ldr	r3, [r3, #0]
 8000fe8:	e9d3 2308 	ldrd	r2, r3, [r3, #32]
 8000fec:	e9c7 2308 	strd	r2, r3, [r7, #32]
        Local_AFTmpReg &= ~( ((u64)GPIO_4_BIT_MASK) << (ADD_Config->Pin*GPIO_PIN_OFFSET_4) );
 8000ff0:	69fb      	ldr	r3, [r7, #28]
 8000ff2:	685b      	ldr	r3, [r3, #4]
 8000ff4:	009c      	lsls	r4, r3, #2
 8000ff6:	f04f 020f 	mov.w	r2, #15
 8000ffa:	f04f 0300 	mov.w	r3, #0
 8000ffe:	f1a4 0120 	sub.w	r1, r4, #32
 8001002:	f1c4 0020 	rsb	r0, r4, #32
 8001006:	fa03 fb04 	lsl.w	fp, r3, r4
 800100a:	fa02 f101 	lsl.w	r1, r2, r1
 800100e:	ea4b 0b01 	orr.w	fp, fp, r1
 8001012:	fa22 f000 	lsr.w	r0, r2, r0
 8001016:	ea4b 0b00 	orr.w	fp, fp, r0
 800101a:	fa02 fa04 	lsl.w	sl, r2, r4
 800101e:	ea6f 030a 	mvn.w	r3, sl
 8001022:	613b      	str	r3, [r7, #16]
 8001024:	ea6f 030b 	mvn.w	r3, fp
 8001028:	617b      	str	r3, [r7, #20]
 800102a:	e9d7 2308 	ldrd	r2, r3, [r7, #32]
 800102e:	e9d7 ab04 	ldrd	sl, fp, [r7, #16]
 8001032:	4651      	mov	r1, sl
 8001034:	4011      	ands	r1, r2
 8001036:	60b9      	str	r1, [r7, #8]
 8001038:	4659      	mov	r1, fp
 800103a:	4019      	ands	r1, r3
 800103c:	60f9      	str	r1, [r7, #12]
 800103e:	e9d7 3402 	ldrd	r3, r4, [r7, #8]
 8001042:	e9c7 3408 	strd	r3, r4, [r7, #32]
        Local_AFTmpReg |= ( ((u64)ADD_Config->AF) << (ADD_Config->Pin*GPIO_PIN_OFFSET_4) );
 8001046:	69fb      	ldr	r3, [r7, #28]
 8001048:	691b      	ldr	r3, [r3, #16]
 800104a:	2200      	movs	r2, #0
 800104c:	461d      	mov	r5, r3
 800104e:	4616      	mov	r6, r2
 8001050:	69fb      	ldr	r3, [r7, #28]
 8001052:	685b      	ldr	r3, [r3, #4]
 8001054:	009b      	lsls	r3, r3, #2
 8001056:	f1a3 0120 	sub.w	r1, r3, #32
 800105a:	f1c3 0220 	rsb	r2, r3, #32
 800105e:	fa06 f903 	lsl.w	r9, r6, r3
 8001062:	fa05 f101 	lsl.w	r1, r5, r1
 8001066:	ea49 0901 	orr.w	r9, r9, r1
 800106a:	fa25 f202 	lsr.w	r2, r5, r2
 800106e:	ea49 0902 	orr.w	r9, r9, r2
 8001072:	fa05 f803 	lsl.w	r8, r5, r3
 8001076:	e9d7 2308 	ldrd	r2, r3, [r7, #32]
 800107a:	ea42 0108 	orr.w	r1, r2, r8
 800107e:	6039      	str	r1, [r7, #0]
 8001080:	ea43 0309 	orr.w	r3, r3, r9
 8001084:	607b      	str	r3, [r7, #4]
 8001086:	e9d7 3400 	ldrd	r3, r4, [r7]
 800108a:	e9c7 3408 	strd	r3, r4, [r7, #32]
        ((GPIO_Registers_t *)(ADD_Config->Port))->AFR = Local_AFTmpReg;
 800108e:	69fb      	ldr	r3, [r7, #28]
 8001090:	6819      	ldr	r1, [r3, #0]
 8001092:	e9d7 2308 	ldrd	r2, r3, [r7, #32]
 8001096:	e9c1 2308 	strd	r2, r3, [r1, #32]
    //		((GPIO_Registers_t *)(ADD_Config->Port))->AFRH = Local_TmpReg;
    //    }

    }

    return Ret_ErrorStatus;
 800109a:	f897 302f 	ldrb.w	r3, [r7, #47]	; 0x2f
}
 800109e:	4618      	mov	r0, r3
 80010a0:	3730      	adds	r7, #48	; 0x30
 80010a2:	46bd      	mov	sp, r7
 80010a4:	e8bd 0ff0 	ldmia.w	sp!, {r4, r5, r6, r7, r8, r9, sl, fp}
 80010a8:	4770      	bx	lr
 80010aa:	bf00      	nop

080010ac <GPIO_SetPinState>:


GPIO_ErrorStatus_t GPIO_SetPinState(void * Copy_Port, u32 Copy_Pin, u8 Copy_State)
{
 80010ac:	b480      	push	{r7}
 80010ae:	b087      	sub	sp, #28
 80010b0:	af00      	add	r7, sp, #0
 80010b2:	60f8      	str	r0, [r7, #12]
 80010b4:	60b9      	str	r1, [r7, #8]
 80010b6:	4613      	mov	r3, r2
 80010b8:	71fb      	strb	r3, [r7, #7]
    GPIO_ErrorStatus_t Ret_ErrorStatus = GPIO_OK;
 80010ba:	2300      	movs	r3, #0
 80010bc:	75fb      	strb	r3, [r7, #23]
    
    if(!IS_GPIO_PORT(Copy_Port))
 80010be:	68fb      	ldr	r3, [r7, #12]
 80010c0:	4a1f      	ldr	r2, [pc, #124]	; (8001140 <GPIO_SetPinState+0x94>)
 80010c2:	4293      	cmp	r3, r2
 80010c4:	d00a      	beq.n	80010dc <GPIO_SetPinState+0x30>
 80010c6:	68fb      	ldr	r3, [r7, #12]
 80010c8:	4a1e      	ldr	r2, [pc, #120]	; (8001144 <GPIO_SetPinState+0x98>)
 80010ca:	4293      	cmp	r3, r2
 80010cc:	d006      	beq.n	80010dc <GPIO_SetPinState+0x30>
 80010ce:	68fb      	ldr	r3, [r7, #12]
 80010d0:	4a1d      	ldr	r2, [pc, #116]	; (8001148 <GPIO_SetPinState+0x9c>)
 80010d2:	4293      	cmp	r3, r2
 80010d4:	d002      	beq.n	80010dc <GPIO_SetPinState+0x30>
    {
        Ret_ErrorStatus = GPIO_INVALID_PORT;
 80010d6:	2305      	movs	r3, #5
 80010d8:	75fb      	strb	r3, [r7, #23]
 80010da:	e00d      	b.n	80010f8 <GPIO_SetPinState+0x4c>
    }
    else if(!IS_GPIO_PIN(Copy_Pin))
 80010dc:	68bb      	ldr	r3, [r7, #8]
 80010de:	2b0f      	cmp	r3, #15
 80010e0:	d902      	bls.n	80010e8 <GPIO_SetPinState+0x3c>
    {
        Ret_ErrorStatus = GPIO_INVALID_PIN;
 80010e2:	2306      	movs	r3, #6
 80010e4:	75fb      	strb	r3, [r7, #23]
 80010e6:	e007      	b.n	80010f8 <GPIO_SetPinState+0x4c>
    }
    else if(!IS_GPIO_STATE(Copy_State))
 80010e8:	79fb      	ldrb	r3, [r7, #7]
 80010ea:	2b01      	cmp	r3, #1
 80010ec:	d004      	beq.n	80010f8 <GPIO_SetPinState+0x4c>
 80010ee:	79fb      	ldrb	r3, [r7, #7]
 80010f0:	2b00      	cmp	r3, #0
 80010f2:	d001      	beq.n	80010f8 <GPIO_SetPinState+0x4c>
    {
        Ret_ErrorStatus = GPIO_INVALID_STATE;
 80010f4:	2308      	movs	r3, #8
 80010f6:	75fb      	strb	r3, [r7, #23]
    else
    {
        /* do nothing */
    }

    if(Ret_ErrorStatus == GPIO_OK)
 80010f8:	7dfb      	ldrb	r3, [r7, #23]
 80010fa:	2b00      	cmp	r3, #0
 80010fc:	d118      	bne.n	8001130 <GPIO_SetPinState+0x84>
    {
        switch(Copy_State)
 80010fe:	79fb      	ldrb	r3, [r7, #7]
 8001100:	2b00      	cmp	r3, #0
 8001102:	d002      	beq.n	800110a <GPIO_SetPinState+0x5e>
 8001104:	2b01      	cmp	r3, #1
 8001106:	d009      	beq.n	800111c <GPIO_SetPinState+0x70>
 8001108:	e010      	b.n	800112c <GPIO_SetPinState+0x80>
        {
            case GPIO_STATE_LOW:
                ((GPIO_Registers_t *)Copy_Port)->BSRR = ( 1<< (Copy_Pin+GPIO_BSRR_RESET_OFFSET) );
 800110a:	68bb      	ldr	r3, [r7, #8]
 800110c:	3310      	adds	r3, #16
 800110e:	2201      	movs	r2, #1
 8001110:	fa02 f303 	lsl.w	r3, r2, r3
 8001114:	461a      	mov	r2, r3
 8001116:	68fb      	ldr	r3, [r7, #12]
 8001118:	619a      	str	r2, [r3, #24]
                break;
 800111a:	e009      	b.n	8001130 <GPIO_SetPinState+0x84>

            case GPIO_STATE_HIGH:
                ((GPIO_Registers_t *)Copy_Port)->BSRR = (1<< Copy_Pin);
 800111c:	2201      	movs	r2, #1
 800111e:	68bb      	ldr	r3, [r7, #8]
 8001120:	fa02 f303 	lsl.w	r3, r2, r3
 8001124:	461a      	mov	r2, r3
 8001126:	68fb      	ldr	r3, [r7, #12]
 8001128:	619a      	str	r2, [r3, #24]
                break;
 800112a:	e001      	b.n	8001130 <GPIO_SetPinState+0x84>

            default:
                Ret_ErrorStatus = GPIO_NOK;
 800112c:	2301      	movs	r3, #1
 800112e:	75fb      	strb	r3, [r7, #23]
        }
    }
    

    return Ret_ErrorStatus;
 8001130:	7dfb      	ldrb	r3, [r7, #23]
}
 8001132:	4618      	mov	r0, r3
 8001134:	371c      	adds	r7, #28
 8001136:	46bd      	mov	sp, r7
 8001138:	f85d 7b04 	ldr.w	r7, [sp], #4
 800113c:	4770      	bx	lr
 800113e:	bf00      	nop
 8001140:	40020000 	.word	0x40020000
 8001144:	40020400 	.word	0x40020400
 8001148:	40020800 	.word	0x40020800

0800114c <NVIC_SetBitInReg>:
/* ============================================================================ */
/*                                STATIC FUNCTIONS                   	        */
/* ============================================================================ */

static NVIC_ErrorStatus_t NVIC_SetBitInReg(NVIC_InterruptID_t Copy_InterruptID, volatile u32* const Add_Reg)
{
 800114c:	b4b0      	push	{r4, r5, r7}
 800114e:	b087      	sub	sp, #28
 8001150:	af00      	add	r7, sp, #0
 8001152:	e9c7 0102 	strd	r0, r1, [r7, #8]
 8001156:	607a      	str	r2, [r7, #4]
    NVIC_ErrorStatus_t Ret_ErrorStatus = NVIC_OK;
 8001158:	2300      	movs	r3, #0
 800115a:	75fb      	strb	r3, [r7, #23]
    u8 Local_RegNumber;
    u8 Local_BitNmber;
    if(!IS_INTERRUPT_ID(Copy_InterruptID))
 800115c:	e9d7 2302 	ldrd	r2, r3, [r7, #8]
 8001160:	2400      	movs	r4, #0
 8001162:	f003 050f 	and.w	r5, r3, #15
 8001166:	f1a5 030f 	sub.w	r3, r5, #15
 800116a:	4323      	orrs	r3, r4
 800116c:	d001      	beq.n	8001172 <NVIC_SetBitInReg+0x26>
    {
        Ret_ErrorStatus = NVIC_INVALID_INTERRUPT_ID;
 800116e:	2302      	movs	r3, #2
 8001170:	75fb      	strb	r3, [r7, #23]
    }

    if(Ret_ErrorStatus == NVIC_OK)
 8001172:	7dfb      	ldrb	r3, [r7, #23]
 8001174:	2b00      	cmp	r3, #0
 8001176:	d119      	bne.n	80011ac <NVIC_SetBitInReg+0x60>
    {
        Local_RegNumber = Copy_InterruptID / 32;
 8001178:	e9d7 0102 	ldrd	r0, r1, [r7, #8]
 800117c:	f04f 0200 	mov.w	r2, #0
 8001180:	f04f 0300 	mov.w	r3, #0
 8001184:	0942      	lsrs	r2, r0, #5
 8001186:	ea42 62c1 	orr.w	r2, r2, r1, lsl #27
 800118a:	094b      	lsrs	r3, r1, #5
 800118c:	4613      	mov	r3, r2
 800118e:	75bb      	strb	r3, [r7, #22]
        Local_BitNmber  = Copy_InterruptID % 32;
 8001190:	7a3b      	ldrb	r3, [r7, #8]
 8001192:	f003 031f 	and.w	r3, r3, #31
 8001196:	757b      	strb	r3, [r7, #21]
        Add_Reg[Local_RegNumber] = (1 << Local_BitNmber);
 8001198:	7d7b      	ldrb	r3, [r7, #21]
 800119a:	2201      	movs	r2, #1
 800119c:	fa02 f103 	lsl.w	r1, r2, r3
 80011a0:	7dbb      	ldrb	r3, [r7, #22]
 80011a2:	009b      	lsls	r3, r3, #2
 80011a4:	687a      	ldr	r2, [r7, #4]
 80011a6:	4413      	add	r3, r2
 80011a8:	460a      	mov	r2, r1
 80011aa:	601a      	str	r2, [r3, #0]
    }

    return Ret_ErrorStatus;
 80011ac:	7dfb      	ldrb	r3, [r7, #23]
}
 80011ae:	4618      	mov	r0, r3
 80011b0:	371c      	adds	r7, #28
 80011b2:	46bd      	mov	sp, r7
 80011b4:	bcb0      	pop	{r4, r5, r7}
 80011b6:	4770      	bx	lr

080011b8 <NVIC_EnableInterrupt>:
/*                                  APIS IMPLEMENTATION                       	*/
/* ============================================================================ */


NVIC_ErrorStatus_t NVIC_EnableInterrupt(NVIC_InterruptID_t Copy_InterruptID)
{
 80011b8:	b580      	push	{r7, lr}
 80011ba:	b084      	sub	sp, #16
 80011bc:	af00      	add	r7, sp, #0
 80011be:	e9c7 0100 	strd	r0, r1, [r7]
    NVIC_ErrorStatus_t Ret_ErrorStatus = NVIC_OK;
 80011c2:	2300      	movs	r3, #0
 80011c4:	73fb      	strb	r3, [r7, #15]
    
    Ret_ErrorStatus = NVIC_SetBitInReg(Copy_InterruptID, NVIC->ISER);
 80011c6:	4a06      	ldr	r2, [pc, #24]	; (80011e0 <NVIC_EnableInterrupt+0x28>)
 80011c8:	e9d7 0100 	ldrd	r0, r1, [r7]
 80011cc:	f7ff ffbe 	bl	800114c <NVIC_SetBitInReg>
 80011d0:	4603      	mov	r3, r0
 80011d2:	73fb      	strb	r3, [r7, #15]

    return Ret_ErrorStatus;
 80011d4:	7bfb      	ldrb	r3, [r7, #15]
}
 80011d6:	4618      	mov	r0, r3
 80011d8:	3710      	adds	r7, #16
 80011da:	46bd      	mov	sp, r7
 80011dc:	bd80      	pop	{r7, pc}
 80011de:	bf00      	nop
 80011e0:	e000e100 	.word	0xe000e100

080011e4 <RCC_EnableClk>:
    RCC_IWDGRSTF = 29,
    RCC_WWDGRSTF = 30,
    RCC_LPWRRSTF = 31,

}RCC_CSR_Bits_t;

 80011e4:	b480      	push	{r7}
 80011e6:	b085      	sub	sp, #20
 80011e8:	af00      	add	r7, sp, #0
 80011ea:	4603      	mov	r3, r0
 80011ec:	71fb      	strb	r3, [r7, #7]
RCC_ErrorStatus_t RCC_EnableClk(u8 Copy_Clk)
 80011ee:	2300      	movs	r3, #0
 80011f0:	73fb      	strb	r3, [r7, #15]
{
    RCC_ErrorStatus_t Ret_ErrorStatus = RCC_OK;
 80011f2:	79fb      	ldrb	r3, [r7, #7]
 80011f4:	2b05      	cmp	r3, #5
 80011f6:	d863      	bhi.n	80012c0 <RCC_EnableClk+0xdc>
 80011f8:	a201      	add	r2, pc, #4	; (adr r2, 8001200 <RCC_EnableClk+0x1c>)
 80011fa:	f852 f023 	ldr.w	pc, [r2, r3, lsl #2]
 80011fe:	bf00      	nop
 8001200:	08001219 	.word	0x08001219
 8001204:	08001235 	.word	0x08001235
 8001208:	08001251 	.word	0x08001251
 800120c:	0800126d 	.word	0x0800126d
 8001210:	08001289 	.word	0x08001289
 8001214:	080012a5 	.word	0x080012a5
    u16 Local_Timeout = RCC_TIMEOUT_PERIOD;
    switch(Copy_Clk)
    {
 8001218:	4b2e      	ldr	r3, [pc, #184]	; (80012d4 <RCC_EnableClk+0xf0>)
 800121a:	681b      	ldr	r3, [r3, #0]
 800121c:	4a2d      	ldr	r2, [pc, #180]	; (80012d4 <RCC_EnableClk+0xf0>)
 800121e:	f043 0301 	orr.w	r3, r3, #1
 8001222:	6013      	str	r3, [r2, #0]
        case RCC_CLK_HSI:
            RCC->CR |= (1<<RCC_HSION);
 8001224:	bf00      	nop
 8001226:	4b2b      	ldr	r3, [pc, #172]	; (80012d4 <RCC_EnableClk+0xf0>)
 8001228:	681b      	ldr	r3, [r3, #0]
 800122a:	f003 0302 	and.w	r3, r3, #2
 800122e:	2b00      	cmp	r3, #0
 8001230:	d0f9      	beq.n	8001226 <RCC_EnableClk+0x42>
            /* Wait till Ready */
 8001232:	e047      	b.n	80012c4 <RCC_EnableClk+0xe0>
            while( (((RCC->CR >> RCC_HSIRDY) & 1) == 0) && (!Local_Timeout) ){Local_Timeout--;}
            break;

 8001234:	4b27      	ldr	r3, [pc, #156]	; (80012d4 <RCC_EnableClk+0xf0>)
 8001236:	681b      	ldr	r3, [r3, #0]
 8001238:	4a26      	ldr	r2, [pc, #152]	; (80012d4 <RCC_EnableClk+0xf0>)
 800123a:	f443 3380 	orr.w	r3, r3, #65536	; 0x10000
 800123e:	6013      	str	r3, [r2, #0]
        case RCC_CLK_HSE:
            RCC->CR |= (1<<RCC_HSEON);
 8001240:	bf00      	nop
 8001242:	4b24      	ldr	r3, [pc, #144]	; (80012d4 <RCC_EnableClk+0xf0>)
 8001244:	681b      	ldr	r3, [r3, #0]
 8001246:	f403 3300 	and.w	r3, r3, #131072	; 0x20000
 800124a:	2b00      	cmp	r3, #0
 800124c:	d0f9      	beq.n	8001242 <RCC_EnableClk+0x5e>
            /* Wait till Ready */
 800124e:	e039      	b.n	80012c4 <RCC_EnableClk+0xe0>
            while( (((RCC->CR >> RCC_HSERDY) & 1) == 0) && (!Local_Timeout) ){Local_Timeout--;}
            break;

 8001250:	4b20      	ldr	r3, [pc, #128]	; (80012d4 <RCC_EnableClk+0xf0>)
 8001252:	681b      	ldr	r3, [r3, #0]
 8001254:	4a1f      	ldr	r2, [pc, #124]	; (80012d4 <RCC_EnableClk+0xf0>)
 8001256:	f043 7380 	orr.w	r3, r3, #16777216	; 0x1000000
 800125a:	6013      	str	r3, [r2, #0]
        case RCC_CLK_PLL:
            RCC->CR |= (1<<RCC_PLLON);
 800125c:	bf00      	nop
 800125e:	4b1d      	ldr	r3, [pc, #116]	; (80012d4 <RCC_EnableClk+0xf0>)
 8001260:	681b      	ldr	r3, [r3, #0]
 8001262:	f003 7300 	and.w	r3, r3, #33554432	; 0x2000000
 8001266:	2b00      	cmp	r3, #0
 8001268:	d0f9      	beq.n	800125e <RCC_EnableClk+0x7a>
            /* Wait till Ready */
 800126a:	e02b      	b.n	80012c4 <RCC_EnableClk+0xe0>
            while( (((RCC->CR >> RCC_PLLRDY) & 1) == 0) && (!Local_Timeout) ){Local_Timeout--;}
            break;

 800126c:	4b19      	ldr	r3, [pc, #100]	; (80012d4 <RCC_EnableClk+0xf0>)
 800126e:	681b      	ldr	r3, [r3, #0]
 8001270:	4a18      	ldr	r2, [pc, #96]	; (80012d4 <RCC_EnableClk+0xf0>)
 8001272:	f043 6380 	orr.w	r3, r3, #67108864	; 0x4000000
 8001276:	6013      	str	r3, [r2, #0]
        case RCC_CLK_PLL2:
            RCC->CR |= (1<<RCC_PLLI2SON);
 8001278:	bf00      	nop
 800127a:	4b16      	ldr	r3, [pc, #88]	; (80012d4 <RCC_EnableClk+0xf0>)
 800127c:	681b      	ldr	r3, [r3, #0]
 800127e:	f003 6300 	and.w	r3, r3, #134217728	; 0x8000000
 8001282:	2b00      	cmp	r3, #0
 8001284:	d0f9      	beq.n	800127a <RCC_EnableClk+0x96>
            /* Wait till Ready */
 8001286:	e01d      	b.n	80012c4 <RCC_EnableClk+0xe0>
            while( (((RCC->CR >> RCC_PLLI2SRDY) & 1) == 0) && (!Local_Timeout) ){Local_Timeout--;}
            break;

 8001288:	4b12      	ldr	r3, [pc, #72]	; (80012d4 <RCC_EnableClk+0xf0>)
 800128a:	681b      	ldr	r3, [r3, #0]
 800128c:	4a11      	ldr	r2, [pc, #68]	; (80012d4 <RCC_EnableClk+0xf0>)
 800128e:	f043 0301 	orr.w	r3, r3, #1
 8001292:	6013      	str	r3, [r2, #0]
        case RCC_CLK_LSE:
            RCC->BDCR |= (1<<RCC_LSEON);
 8001294:	bf00      	nop
 8001296:	4b0f      	ldr	r3, [pc, #60]	; (80012d4 <RCC_EnableClk+0xf0>)
 8001298:	6f1b      	ldr	r3, [r3, #112]	; 0x70
 800129a:	f003 0302 	and.w	r3, r3, #2
 800129e:	2b00      	cmp	r3, #0
 80012a0:	d0f9      	beq.n	8001296 <RCC_EnableClk+0xb2>
            /* Wait till Ready */
 80012a2:	e00f      	b.n	80012c4 <RCC_EnableClk+0xe0>
            while( (((RCC->BDCR >> RCC_LSERDY) & 1) == 0) && (!Local_Timeout) ){Local_Timeout--;}
            break;

 80012a4:	4b0b      	ldr	r3, [pc, #44]	; (80012d4 <RCC_EnableClk+0xf0>)
 80012a6:	681b      	ldr	r3, [r3, #0]
 80012a8:	4a0a      	ldr	r2, [pc, #40]	; (80012d4 <RCC_EnableClk+0xf0>)
 80012aa:	f043 0301 	orr.w	r3, r3, #1
 80012ae:	6013      	str	r3, [r2, #0]
        case RCC_CLK_LSI:
            RCC->CSR |= (1<<RCC_LSION);
 80012b0:	bf00      	nop
 80012b2:	4b08      	ldr	r3, [pc, #32]	; (80012d4 <RCC_EnableClk+0xf0>)
 80012b4:	6f5b      	ldr	r3, [r3, #116]	; 0x74
 80012b6:	f003 0302 	and.w	r3, r3, #2
 80012ba:	2b00      	cmp	r3, #0
 80012bc:	d0f9      	beq.n	80012b2 <RCC_EnableClk+0xce>
            /* Wait till Ready */
 80012be:	e001      	b.n	80012c4 <RCC_EnableClk+0xe0>
            while( (((RCC->CSR >> RCC_LSIRDY) & 1) == 0) && (!Local_Timeout) ){Local_Timeout--;}
            break;

 80012c0:	2301      	movs	r3, #1
 80012c2:	73fb      	strb	r3, [r7, #15]
        default:
            Ret_ErrorStatus = RCC_NOK;
    }

 80012c4:	7bfb      	ldrb	r3, [r7, #15]

 80012c6:	4618      	mov	r0, r3
 80012c8:	3714      	adds	r7, #20
 80012ca:	46bd      	mov	sp, r7
 80012cc:	f85d 7b04 	ldr.w	r7, [sp], #4
 80012d0:	4770      	bx	lr
 80012d2:	bf00      	nop
 80012d4:	40023800 	.word	0x40023800

080012d8 <RCC_SetSystemClk>:
    return Ret_ErrorStatus;
}




 80012d8:	b480      	push	{r7}
 80012da:	b085      	sub	sp, #20
 80012dc:	af00      	add	r7, sp, #0
 80012de:	4603      	mov	r3, r0
 80012e0:	71fb      	strb	r3, [r7, #7]
RCC_ErrorStatus_t RCC_SetSystemClk(u8 Copy_SystemClk)
 80012e2:	2300      	movs	r3, #0
 80012e4:	73fb      	strb	r3, [r7, #15]
{
    RCC_ErrorStatus_t Ret_ErrorStatus = RCC_OK;
    u32 Local_TmpReg;
 80012e6:	79fb      	ldrb	r3, [r7, #7]
 80012e8:	2b00      	cmp	r3, #0
 80012ea:	d105      	bne.n	80012f8 <RCC_SetSystemClk+0x20>

 80012ec:	4b17      	ldr	r3, [pc, #92]	; (800134c <RCC_SetSystemClk+0x74>)
 80012ee:	681b      	ldr	r3, [r3, #0]
 80012f0:	f003 0301 	and.w	r3, r3, #1
 80012f4:	2b00      	cmp	r3, #0
 80012f6:	d011      	beq.n	800131c <RCC_SetSystemClk+0x44>
    if(
 80012f8:	79fb      	ldrb	r3, [r7, #7]
 80012fa:	2b01      	cmp	r3, #1
 80012fc:	d105      	bne.n	800130a <RCC_SetSystemClk+0x32>
        ( (Copy_SystemClk == RCC_SYSCLK_HSI) && !( (RCC->CR >> RCC_HSION) & 1 ) )
 80012fe:	4b13      	ldr	r3, [pc, #76]	; (800134c <RCC_SetSystemClk+0x74>)
 8001300:	681b      	ldr	r3, [r3, #0]
 8001302:	f403 3380 	and.w	r3, r3, #65536	; 0x10000
 8001306:	2b00      	cmp	r3, #0
 8001308:	d008      	beq.n	800131c <RCC_SetSystemClk+0x44>
        ||
 800130a:	79fb      	ldrb	r3, [r7, #7]
 800130c:	2b02      	cmp	r3, #2
 800130e:	d108      	bne.n	8001322 <RCC_SetSystemClk+0x4a>
        ( (Copy_SystemClk == RCC_SYSCLK_HSE) && !( (RCC->CR >> RCC_HSEON) & 1 ) )
 8001310:	4b0e      	ldr	r3, [pc, #56]	; (800134c <RCC_SetSystemClk+0x74>)
 8001312:	681b      	ldr	r3, [r3, #0]
 8001314:	f003 7380 	and.w	r3, r3, #16777216	; 0x1000000
 8001318:	2b00      	cmp	r3, #0
 800131a:	d102      	bne.n	8001322 <RCC_SetSystemClk+0x4a>
        ||
        ( (Copy_SystemClk == RCC_SYSCLK_PLL) && !( (RCC->CR >> RCC_PLLON) & 1 ) )
                                                                                )

 800131c:	2301      	movs	r3, #1
 800131e:	73fb      	strb	r3, [r7, #15]
 8001320:	e00d      	b.n	800133e <RCC_SetSystemClk+0x66>
    {
        Ret_ErrorStatus = RCC_NOK;
    }
    else
 8001322:	4b0a      	ldr	r3, [pc, #40]	; (800134c <RCC_SetSystemClk+0x74>)
 8001324:	689b      	ldr	r3, [r3, #8]
 8001326:	60bb      	str	r3, [r7, #8]
    {
 8001328:	68bb      	ldr	r3, [r7, #8]
 800132a:	f023 0303 	bic.w	r3, r3, #3
 800132e:	60bb      	str	r3, [r7, #8]
        Local_TmpReg = RCC->CFGR;
 8001330:	79fb      	ldrb	r3, [r7, #7]
 8001332:	68ba      	ldr	r2, [r7, #8]
 8001334:	4313      	orrs	r3, r2
 8001336:	60bb      	str	r3, [r7, #8]
        Local_TmpReg &= (~RCC_SYSCLK_MASK);
 8001338:	4a04      	ldr	r2, [pc, #16]	; (800134c <RCC_SetSystemClk+0x74>)
 800133a:	68bb      	ldr	r3, [r7, #8]
 800133c:	6093      	str	r3, [r2, #8]
        Local_TmpReg |= Copy_SystemClk;
        RCC->CFGR = Local_TmpReg;

    }
 800133e:	7bfb      	ldrb	r3, [r7, #15]

 8001340:	4618      	mov	r0, r3
 8001342:	3714      	adds	r7, #20
 8001344:	46bd      	mov	sp, r7
 8001346:	f85d 7b04 	ldr.w	r7, [sp], #4
 800134a:	4770      	bx	lr
 800134c:	40023800 	.word	0x40023800

08001350 <RCC_EnablePeripheral>:
    }

    return Ret_ErrorStatus;
}


 8001350:	b480      	push	{r7}
 8001352:	b085      	sub	sp, #20
 8001354:	af00      	add	r7, sp, #0
 8001356:	4603      	mov	r3, r0
 8001358:	71fb      	strb	r3, [r7, #7]
RCC_ErrorStatus_t RCC_EnablePeripheral(RCC_Peripheral_t Copy_Peripheral)
 800135a:	2300      	movs	r3, #0
 800135c:	73fb      	strb	r3, [r7, #15]
{
    u32 Local_PeripheralCode = ((u32*)&Copy_Peripheral)[1];         /* Code part of the peripheral enum */      
 800135e:	79fb      	ldrb	r3, [r7, #7]
 8001360:	2b1f      	cmp	r3, #31
 8001362:	d80a      	bhi.n	800137a <RCC_EnablePeripheral+0x2a>
    RCC_ErrorStatus_t Ret_ErrorStatus = RCC_OK;

 8001364:	4b20      	ldr	r3, [pc, #128]	; (80013e8 <RCC_EnablePeripheral+0x98>)
 8001366:	6b1b      	ldr	r3, [r3, #48]	; 0x30
 8001368:	79fa      	ldrb	r2, [r7, #7]
 800136a:	2101      	movs	r1, #1
 800136c:	fa01 f202 	lsl.w	r2, r1, r2
 8001370:	4611      	mov	r1, r2
 8001372:	4a1d      	ldr	r2, [pc, #116]	; (80013e8 <RCC_EnablePeripheral+0x98>)
 8001374:	430b      	orrs	r3, r1
 8001376:	6313      	str	r3, [r2, #48]	; 0x30
 8001378:	e02f      	b.n	80013da <RCC_EnablePeripheral+0x8a>
    /* Check for the Peripherals enums Specific code to make sure
     * that the recived argument is only a Peripheral enum */
 800137a:	79fb      	ldrb	r3, [r7, #7]
 800137c:	2b3f      	cmp	r3, #63	; 0x3f
 800137e:	d80b      	bhi.n	8001398 <RCC_EnablePeripheral+0x48>
    if(Local_PeripheralCode != 3)
    {
 8001380:	4b19      	ldr	r3, [pc, #100]	; (80013e8 <RCC_EnablePeripheral+0x98>)
 8001382:	6b5b      	ldr	r3, [r3, #52]	; 0x34
 8001384:	79fa      	ldrb	r2, [r7, #7]
 8001386:	3a20      	subs	r2, #32
 8001388:	2101      	movs	r1, #1
 800138a:	fa01 f202 	lsl.w	r2, r1, r2
 800138e:	4611      	mov	r1, r2
 8001390:	4a15      	ldr	r2, [pc, #84]	; (80013e8 <RCC_EnablePeripheral+0x98>)
 8001392:	430b      	orrs	r3, r1
 8001394:	6353      	str	r3, [r2, #52]	; 0x34
 8001396:	e020      	b.n	80013da <RCC_EnablePeripheral+0x8a>
        Ret_ErrorStatus = RCC_NOK;
    }
 8001398:	79fb      	ldrb	r3, [r7, #7]
 800139a:	2b5f      	cmp	r3, #95	; 0x5f
 800139c:	d80b      	bhi.n	80013b6 <RCC_EnablePeripheral+0x66>
    else
    {
 800139e:	4b12      	ldr	r3, [pc, #72]	; (80013e8 <RCC_EnablePeripheral+0x98>)
 80013a0:	6c1b      	ldr	r3, [r3, #64]	; 0x40
 80013a2:	79fa      	ldrb	r2, [r7, #7]
 80013a4:	3a40      	subs	r2, #64	; 0x40
 80013a6:	2101      	movs	r1, #1
 80013a8:	fa01 f202 	lsl.w	r2, r1, r2
 80013ac:	4611      	mov	r1, r2
 80013ae:	4a0e      	ldr	r2, [pc, #56]	; (80013e8 <RCC_EnablePeripheral+0x98>)
 80013b0:	430b      	orrs	r3, r1
 80013b2:	6413      	str	r3, [r2, #64]	; 0x40
 80013b4:	e011      	b.n	80013da <RCC_EnablePeripheral+0x8a>
        if((u32)Copy_Peripheral < 32)        /* AHB1 REG peripherals */
        {
 80013b6:	f997 3007 	ldrsb.w	r3, [r7, #7]
 80013ba:	2b00      	cmp	r3, #0
 80013bc:	db0b      	blt.n	80013d6 <RCC_EnablePeripheral+0x86>
            RCC->AHB1ENR |= (1<<(u32)Copy_Peripheral);
        }
 80013be:	4b0a      	ldr	r3, [pc, #40]	; (80013e8 <RCC_EnablePeripheral+0x98>)
 80013c0:	6c5b      	ldr	r3, [r3, #68]	; 0x44
 80013c2:	79fa      	ldrb	r2, [r7, #7]
 80013c4:	3a60      	subs	r2, #96	; 0x60
 80013c6:	2101      	movs	r1, #1
 80013c8:	fa01 f202 	lsl.w	r2, r1, r2
 80013cc:	4611      	mov	r1, r2
 80013ce:	4a06      	ldr	r2, [pc, #24]	; (80013e8 <RCC_EnablePeripheral+0x98>)
 80013d0:	430b      	orrs	r3, r1
 80013d2:	6453      	str	r3, [r2, #68]	; 0x44
 80013d4:	e001      	b.n	80013da <RCC_EnablePeripheral+0x8a>
        else if((u32)Copy_Peripheral < 64)   /* AHB2 REG peripherals */
        {
            RCC->AHB2ENR |= (1<< ((u32)Copy_Peripheral - 32) );
        }
 80013d6:	2301      	movs	r3, #1
 80013d8:	73fb      	strb	r3, [r7, #15]
        else if((u32)Copy_Peripheral < 96)   /* APB1 REG peripherals */
        {
            RCC->APB1ENR |= (1<< ((u32)Copy_Peripheral - 64) );
 80013da:	7bfb      	ldrb	r3, [r7, #15]
        }
 80013dc:	4618      	mov	r0, r3
 80013de:	3714      	adds	r7, #20
 80013e0:	46bd      	mov	sp, r7
 80013e2:	f85d 7b04 	ldr.w	r7, [sp], #4
 80013e6:	4770      	bx	lr
 80013e8:	40023800 	.word	0x40023800

080013ec <SYSTICK_SetTicks>:
/* ============================================================================ */
/*                                  STATIC FUNCTIONS                    	    */
/* ============================================================================ */

static SYSTICK_ErrorStatus_t SYSTICK_SetTicks(u32 Copy_Ticks)
{
 80013ec:	b480      	push	{r7}
 80013ee:	b085      	sub	sp, #20
 80013f0:	af00      	add	r7, sp, #0
 80013f2:	6078      	str	r0, [r7, #4]
    SYSTICK_ErrorStatus_t Ret_ErrorStatus = SYSTICK_OK;
 80013f4:	2300      	movs	r3, #0
 80013f6:	73fb      	strb	r3, [r7, #15]

    if(Copy_Ticks > SYSTICK_MAX_TICKS)
 80013f8:	687b      	ldr	r3, [r7, #4]
 80013fa:	f1b3 7f80 	cmp.w	r3, #16777216	; 0x1000000
 80013fe:	d301      	bcc.n	8001404 <SYSTICK_SetTicks+0x18>
    {
        Ret_ErrorStatus = SYSTICK_NOK;
 8001400:	2301      	movs	r3, #1
 8001402:	73fb      	strb	r3, [r7, #15]
    }

    if(Ret_ErrorStatus == SYSTICK_OK)
 8001404:	7bfb      	ldrb	r3, [r7, #15]
 8001406:	2b00      	cmp	r3, #0
 8001408:	d102      	bne.n	8001410 <SYSTICK_SetTicks+0x24>
    {
        SYSTICK->LOAD = Copy_Ticks;
 800140a:	4a05      	ldr	r2, [pc, #20]	; (8001420 <SYSTICK_SetTicks+0x34>)
 800140c:	687b      	ldr	r3, [r7, #4]
 800140e:	6053      	str	r3, [r2, #4]
    }

    return Ret_ErrorStatus;
 8001410:	7bfb      	ldrb	r3, [r7, #15]
}
 8001412:	4618      	mov	r0, r3
 8001414:	3714      	adds	r7, #20
 8001416:	46bd      	mov	sp, r7
 8001418:	f85d 7b04 	ldr.w	r7, [sp], #4
 800141c:	4770      	bx	lr
 800141e:	bf00      	nop
 8001420:	e000e010 	.word	0xe000e010

08001424 <SYSTICK_SetTimeMs>:
    return Ret_ErrorStatus;
}


SYSTICK_ErrorStatus_t SYSTICK_SetTimeMs(u32 Copy_Time)
{
 8001424:	b580      	push	{r7, lr}
 8001426:	b086      	sub	sp, #24
 8001428:	af00      	add	r7, sp, #0
 800142a:	6078      	str	r0, [r7, #4]
    SYSTICK_ErrorStatus_t Ret_ErrorStatus = SYSTICK_OK;
 800142c:	2300      	movs	r3, #0
 800142e:	74fb      	strb	r3, [r7, #19]
    u32 Local_ClockSpeed;
    u32 Local_LoadTicks;

    if( (SYSTICK->CTRL & SYSTICK_CLKSOURCE_PROCESSOR) == SYSTICK_CLKSOURCE_PROCESSOR )
 8001430:	4b0f      	ldr	r3, [pc, #60]	; (8001470 <SYSTICK_SetTimeMs+0x4c>)
 8001432:	681b      	ldr	r3, [r3, #0]
 8001434:	f003 0304 	and.w	r3, r3, #4
 8001438:	2b04      	cmp	r3, #4
 800143a:	d102      	bne.n	8001442 <SYSTICK_SetTimeMs+0x1e>
    {
        Local_ClockSpeed = SYSTICK_PROCESSOR_CLOCK;
 800143c:	4b0d      	ldr	r3, [pc, #52]	; (8001474 <SYSTICK_SetTimeMs+0x50>)
 800143e:	617b      	str	r3, [r7, #20]
 8001440:	e001      	b.n	8001446 <SYSTICK_SetTimeMs+0x22>
    }
    else
    {
        Local_ClockSpeed = SYSTICK_EXTERNAL_CLOCK;
 8001442:	4b0d      	ldr	r3, [pc, #52]	; (8001478 <SYSTICK_SetTimeMs+0x54>)
 8001444:	617b      	str	r3, [r7, #20]
    }

//    Local_LoadTicks = Local_ClockSpeed * ((f32)Copy_Time/1000) ;

    Local_LoadTicks = ( (Local_ClockSpeed/1000) * Copy_Time ) - 1 ;
 8001446:	697b      	ldr	r3, [r7, #20]
 8001448:	4a0c      	ldr	r2, [pc, #48]	; (800147c <SYSTICK_SetTimeMs+0x58>)
 800144a:	fba2 2303 	umull	r2, r3, r2, r3
 800144e:	099b      	lsrs	r3, r3, #6
 8001450:	687a      	ldr	r2, [r7, #4]
 8001452:	fb02 f303 	mul.w	r3, r2, r3
 8001456:	3b01      	subs	r3, #1
 8001458:	60fb      	str	r3, [r7, #12]
    

    Ret_ErrorStatus = SYSTICK_SetTicks(Local_LoadTicks);
 800145a:	68f8      	ldr	r0, [r7, #12]
 800145c:	f7ff ffc6 	bl	80013ec <SYSTICK_SetTicks>
 8001460:	4603      	mov	r3, r0
 8001462:	74fb      	strb	r3, [r7, #19]

    return Ret_ErrorStatus;
 8001464:	7cfb      	ldrb	r3, [r7, #19]
}
 8001466:	4618      	mov	r0, r3
 8001468:	3718      	adds	r7, #24
 800146a:	46bd      	mov	sp, r7
 800146c:	bd80      	pop	{r7, pc}
 800146e:	bf00      	nop
 8001470:	e000e010 	.word	0xe000e010
 8001474:	017d7840 	.word	0x017d7840
 8001478:	002faf08 	.word	0x002faf08
 800147c:	10624dd3 	.word	0x10624dd3

08001480 <SYSTICK_Start>:


SYSTICK_ErrorStatus_t SYSTICK_Start(u8 Copy_Mode)
{
 8001480:	b480      	push	{r7}
 8001482:	b085      	sub	sp, #20
 8001484:	af00      	add	r7, sp, #0
 8001486:	4603      	mov	r3, r0
 8001488:	71fb      	strb	r3, [r7, #7]

    SYSTICK_ErrorStatus_t Ret_ErrorStatus = SYSTICK_OK;
 800148a:	2300      	movs	r3, #0
 800148c:	73fb      	strb	r3, [r7, #15]

    if(!IS_VALID_MODE(Copy_Mode))
 800148e:	79fb      	ldrb	r3, [r7, #7]
 8001490:	2b02      	cmp	r3, #2
 8001492:	d004      	beq.n	800149e <SYSTICK_Start+0x1e>
 8001494:	79fb      	ldrb	r3, [r7, #7]
 8001496:	2b00      	cmp	r3, #0
 8001498:	d001      	beq.n	800149e <SYSTICK_Start+0x1e>
    {
        Ret_ErrorStatus = SYSTICK_NOK;
 800149a:	2301      	movs	r3, #1
 800149c:	73fb      	strb	r3, [r7, #15]
    }

    if(Ret_ErrorStatus == SYSTICK_OK)
 800149e:	7bfb      	ldrb	r3, [r7, #15]
 80014a0:	2b00      	cmp	r3, #0
 80014a2:	d112      	bne.n	80014ca <SYSTICK_Start+0x4a>
    {
        /* clear the curr timer value */
        SYSTICK->VAL = 1U;
 80014a4:	4b0c      	ldr	r3, [pc, #48]	; (80014d8 <SYSTICK_Start+0x58>)
 80014a6:	2201      	movs	r2, #1
 80014a8:	609a      	str	r2, [r3, #8]

        /* Clear the Interrupt bit then set it according to mode
         if mode is periodic Int bit will be set if not it will stay cleared */
        SYSTICK->CTRL &= ~SYSTICK_INT_MASK;
 80014aa:	4b0b      	ldr	r3, [pc, #44]	; (80014d8 <SYSTICK_Start+0x58>)
 80014ac:	681b      	ldr	r3, [r3, #0]
 80014ae:	4a0a      	ldr	r2, [pc, #40]	; (80014d8 <SYSTICK_Start+0x58>)
 80014b0:	f023 0302 	bic.w	r3, r3, #2
 80014b4:	6013      	str	r3, [r2, #0]

        /* Enable the systick timer to start it*/
        SYSTICK->CTRL |= (SYSTICK_TIMER_START | Copy_Mode);
 80014b6:	4b08      	ldr	r3, [pc, #32]	; (80014d8 <SYSTICK_Start+0x58>)
 80014b8:	681b      	ldr	r3, [r3, #0]
 80014ba:	79fa      	ldrb	r2, [r7, #7]
 80014bc:	f042 0201 	orr.w	r2, r2, #1
 80014c0:	b2d2      	uxtb	r2, r2
 80014c2:	4611      	mov	r1, r2
 80014c4:	4a04      	ldr	r2, [pc, #16]	; (80014d8 <SYSTICK_Start+0x58>)
 80014c6:	430b      	orrs	r3, r1
 80014c8:	6013      	str	r3, [r2, #0]

    }

    return Ret_ErrorStatus;
 80014ca:	7bfb      	ldrb	r3, [r7, #15]

}
 80014cc:	4618      	mov	r0, r3
 80014ce:	3714      	adds	r7, #20
 80014d0:	46bd      	mov	sp, r7
 80014d2:	f85d 7b04 	ldr.w	r7, [sp], #4
 80014d6:	4770      	bx	lr
 80014d8:	e000e010 	.word	0xe000e010

080014dc <SYSTICK_SetCallback>:
	SYSTICK->CTRL = 0;

}

SYSTICK_ErrorStatus_t SYSTICK_SetCallback(systickcbf_t cbf)
{
 80014dc:	b480      	push	{r7}
 80014de:	b085      	sub	sp, #20
 80014e0:	af00      	add	r7, sp, #0
 80014e2:	6078      	str	r0, [r7, #4]
    SYSTICK_ErrorStatus_t Ret_ErrorStatus = SYSTICK_OK;
 80014e4:	2300      	movs	r3, #0
 80014e6:	73fb      	strb	r3, [r7, #15]

    if(cbf == NULL)
 80014e8:	687b      	ldr	r3, [r7, #4]
 80014ea:	2b00      	cmp	r3, #0
 80014ec:	d101      	bne.n	80014f2 <SYSTICK_SetCallback+0x16>
    {
        Ret_ErrorStatus = SYSTICK_NULL_PTR;
 80014ee:	2302      	movs	r3, #2
 80014f0:	73fb      	strb	r3, [r7, #15]
    }

    if(Ret_ErrorStatus == SYSTICK_OK)
 80014f2:	7bfb      	ldrb	r3, [r7, #15]
 80014f4:	2b00      	cmp	r3, #0
 80014f6:	d102      	bne.n	80014fe <SYSTICK_SetCallback+0x22>
    {
        G_systickcbf = cbf;
 80014f8:	4a04      	ldr	r2, [pc, #16]	; (800150c <SYSTICK_SetCallback+0x30>)
 80014fa:	687b      	ldr	r3, [r7, #4]
 80014fc:	6013      	str	r3, [r2, #0]
    }

    return Ret_ErrorStatus;
 80014fe:	7bfb      	ldrb	r3, [r7, #15]
}
 8001500:	4618      	mov	r0, r3
 8001502:	3714      	adds	r7, #20
 8001504:	46bd      	mov	sp, r7
 8001506:	f85d 7b04 	ldr.w	r7, [sp], #4
 800150a:	4770      	bx	lr
 800150c:	2000009c 	.word	0x2000009c

08001510 <SysTick_Handler>:


void SysTick_Handler(void)
{
 8001510:	b580      	push	{r7, lr}
 8001512:	af00      	add	r7, sp, #0
    if(G_systickcbf)
 8001514:	4b04      	ldr	r3, [pc, #16]	; (8001528 <SysTick_Handler+0x18>)
 8001516:	681b      	ldr	r3, [r3, #0]
 8001518:	2b00      	cmp	r3, #0
 800151a:	d002      	beq.n	8001522 <SysTick_Handler+0x12>
    {
        G_systickcbf();
 800151c:	4b02      	ldr	r3, [pc, #8]	; (8001528 <SysTick_Handler+0x18>)
 800151e:	681b      	ldr	r3, [r3, #0]
 8001520:	4798      	blx	r3
    }
}
 8001522:	bf00      	nop
 8001524:	bd80      	pop	{r7, pc}
 8001526:	bf00      	nop
 8001528:	2000009c 	.word	0x2000009c
 800152c:	00000000 	.word	0x00000000

08001530 <UART_SetConfig>:
/*                                  IMPLEMENTATION                           	*/
/* ============================================================================ */


UART_ErrorStatus_t  UART_SetConfig(u8 UARTx, UART_Config_t* config)
{
 8001530:	b580      	push	{r7, lr}
 8001532:	b086      	sub	sp, #24
 8001534:	af00      	add	r7, sp, #0
 8001536:	6039      	str	r1, [r7, #0]
 8001538:	4601      	mov	r1, r0
 800153a:	71f9      	strb	r1, [r7, #7]
    UART_ErrorStatus_t Ret_ErrorStatus = UART_OK;
 800153c:	2100      	movs	r1, #0
 800153e:	75f9      	strb	r1, [r7, #23]
    u32 tmpReg;
    u32 uartdiv;
    u8 mantissa;
    u32 fraction;

    if(!IS_VALID_UART(UARTx))
 8001540:	79f9      	ldrb	r1, [r7, #7]
 8001542:	2900      	cmp	r1, #0
 8001544:	d008      	beq.n	8001558 <UART_SetConfig+0x28>
 8001546:	79f9      	ldrb	r1, [r7, #7]
 8001548:	2901      	cmp	r1, #1
 800154a:	d005      	beq.n	8001558 <UART_SetConfig+0x28>
 800154c:	79f9      	ldrb	r1, [r7, #7]
 800154e:	2902      	cmp	r1, #2
 8001550:	d002      	beq.n	8001558 <UART_SetConfig+0x28>
    {
        Ret_ErrorStatus = UART_INVALID_UART;
 8001552:	2102      	movs	r1, #2
 8001554:	75f9      	strb	r1, [r7, #23]
 8001556:	e03e      	b.n	80015d6 <UART_SetConfig+0xa6>
    }
    else if(!IS_VALID_BAUDRATE(config->BaudRate))
 8001558:	6839      	ldr	r1, [r7, #0]
 800155a:	6809      	ldr	r1, [r1, #0]
 800155c:	4872      	ldr	r0, [pc, #456]	; (8001728 <UART_SetConfig+0x1f8>)
 800155e:	4281      	cmp	r1, r0
 8001560:	d902      	bls.n	8001568 <UART_SetConfig+0x38>
    {
        Ret_ErrorStatus = UART_INVALID_BAUDRATE;
 8001562:	2103      	movs	r1, #3
 8001564:	75f9      	strb	r1, [r7, #23]
 8001566:	e036      	b.n	80015d6 <UART_SetConfig+0xa6>
    }
    else if(!IS_VALID_LENGTH(config->WordLength))
 8001568:	6839      	ldr	r1, [r7, #0]
 800156a:	6849      	ldr	r1, [r1, #4]
 800156c:	2900      	cmp	r1, #0
 800156e:	d007      	beq.n	8001580 <UART_SetConfig+0x50>
 8001570:	6839      	ldr	r1, [r7, #0]
 8001572:	6849      	ldr	r1, [r1, #4]
 8001574:	f5b1 5f80 	cmp.w	r1, #4096	; 0x1000
 8001578:	d002      	beq.n	8001580 <UART_SetConfig+0x50>
    {
        Ret_ErrorStatus = UART_INVALID_WORD_LENGTH;
 800157a:	2104      	movs	r1, #4
 800157c:	75f9      	strb	r1, [r7, #23]
 800157e:	e02a      	b.n	80015d6 <UART_SetConfig+0xa6>
    }
    else if(!IS_VALID_MODE(config->Mode))
 8001580:	6839      	ldr	r1, [r7, #0]
 8001582:	68c9      	ldr	r1, [r1, #12]
 8001584:	2908      	cmp	r1, #8
 8001586:	d00a      	beq.n	800159e <UART_SetConfig+0x6e>
 8001588:	6839      	ldr	r1, [r7, #0]
 800158a:	68c9      	ldr	r1, [r1, #12]
 800158c:	2904      	cmp	r1, #4
 800158e:	d006      	beq.n	800159e <UART_SetConfig+0x6e>
 8001590:	6839      	ldr	r1, [r7, #0]
 8001592:	68c9      	ldr	r1, [r1, #12]
 8001594:	290c      	cmp	r1, #12
 8001596:	d002      	beq.n	800159e <UART_SetConfig+0x6e>
    {
        Ret_ErrorStatus = UART_INVALID_MODE;
 8001598:	2105      	movs	r1, #5
 800159a:	75f9      	strb	r1, [r7, #23]
 800159c:	e01b      	b.n	80015d6 <UART_SetConfig+0xa6>
    }
    else if(!IS_VALID_PARITY(config->Parity))
 800159e:	6839      	ldr	r1, [r7, #0]
 80015a0:	6889      	ldr	r1, [r1, #8]
 80015a2:	2900      	cmp	r1, #0
 80015a4:	d00c      	beq.n	80015c0 <UART_SetConfig+0x90>
 80015a6:	6839      	ldr	r1, [r7, #0]
 80015a8:	6889      	ldr	r1, [r1, #8]
 80015aa:	f5b1 6f80 	cmp.w	r1, #1024	; 0x400
 80015ae:	d007      	beq.n	80015c0 <UART_SetConfig+0x90>
 80015b0:	6839      	ldr	r1, [r7, #0]
 80015b2:	6889      	ldr	r1, [r1, #8]
 80015b4:	f5b1 6fc0 	cmp.w	r1, #1536	; 0x600
 80015b8:	d002      	beq.n	80015c0 <UART_SetConfig+0x90>
    {
        Ret_ErrorStatus = UART_INVALID_PARITY;
 80015ba:	2106      	movs	r1, #6
 80015bc:	75f9      	strb	r1, [r7, #23]
 80015be:	e00a      	b.n	80015d6 <UART_SetConfig+0xa6>
    }
    else if(!IS_VALID_SAMPLING(config->Sampling))
 80015c0:	6839      	ldr	r1, [r7, #0]
 80015c2:	6909      	ldr	r1, [r1, #16]
 80015c4:	f5b1 4f00 	cmp.w	r1, #32768	; 0x8000
 80015c8:	d005      	beq.n	80015d6 <UART_SetConfig+0xa6>
 80015ca:	6839      	ldr	r1, [r7, #0]
 80015cc:	6909      	ldr	r1, [r1, #16]
 80015ce:	2900      	cmp	r1, #0
 80015d0:	d001      	beq.n	80015d6 <UART_SetConfig+0xa6>
    {
        Ret_ErrorStatus = UART_INVALID_SAMPLING;
 80015d2:	2107      	movs	r1, #7
 80015d4:	75f9      	strb	r1, [r7, #23]
    {
        /* do nothing */
    }


    if(Ret_ErrorStatus == UART_OK)
 80015d6:	7df9      	ldrb	r1, [r7, #23]
 80015d8:	2900      	cmp	r1, #0
 80015da:	f040 809a 	bne.w	8001712 <UART_SetConfig+0x1e2>
    {
        tmpReg = UARTs[UARTx]->CR1;
 80015de:	79f9      	ldrb	r1, [r7, #7]
 80015e0:	4852      	ldr	r0, [pc, #328]	; (800172c <UART_SetConfig+0x1fc>)
 80015e2:	f850 1021 	ldr.w	r1, [r0, r1, lsl #2]
 80015e6:	68c9      	ldr	r1, [r1, #12]
 80015e8:	60f9      	str	r1, [r7, #12]
        tmpReg &= (~UART_MODE_MASK) | (~UART_RXNEIE_MASK) | (~UART_TXEIE_MASK) | (~UART_PARITY_MASK)|\
                    (~UART_LENGTH_MASK) | (~UART_SAMPLING_MASK);
        tmpReg |= (config->Mode) | (config->Parity) | (config->WordLength) | (config->Sampling) | (UART_UE_MASK);
 80015ea:	6839      	ldr	r1, [r7, #0]
 80015ec:	68c8      	ldr	r0, [r1, #12]
 80015ee:	6839      	ldr	r1, [r7, #0]
 80015f0:	6889      	ldr	r1, [r1, #8]
 80015f2:	4308      	orrs	r0, r1
 80015f4:	6839      	ldr	r1, [r7, #0]
 80015f6:	6849      	ldr	r1, [r1, #4]
 80015f8:	4308      	orrs	r0, r1
 80015fa:	6839      	ldr	r1, [r7, #0]
 80015fc:	6909      	ldr	r1, [r1, #16]
 80015fe:	4308      	orrs	r0, r1
 8001600:	68f9      	ldr	r1, [r7, #12]
 8001602:	4301      	orrs	r1, r0
 8001604:	f441 5100 	orr.w	r1, r1, #8192	; 0x2000
 8001608:	60f9      	str	r1, [r7, #12]
        UARTs[UARTx]->CR1 = tmpReg;
 800160a:	79f9      	ldrb	r1, [r7, #7]
 800160c:	4847      	ldr	r0, [pc, #284]	; (800172c <UART_SetConfig+0x1fc>)
 800160e:	f850 1021 	ldr.w	r1, [r0, r1, lsl #2]
 8001612:	68f8      	ldr	r0, [r7, #12]
 8001614:	60c8      	str	r0, [r1, #12]

        /* Calculate Mantissa and Fraction for BaudRate*/

        uartdiv = ((u64)_CLK_FREQ * 1000)/((2-(UARTs[UARTx]->CR1 & UART_SAMPLING_MASK)) * 8 * config->BaudRate);
 8001616:	79f9      	ldrb	r1, [r7, #7]
 8001618:	4844      	ldr	r0, [pc, #272]	; (800172c <UART_SetConfig+0x1fc>)
 800161a:	f850 1021 	ldr.w	r1, [r0, r1, lsl #2]
 800161e:	68c9      	ldr	r1, [r1, #12]
 8001620:	f401 4100 	and.w	r1, r1, #32768	; 0x8000
 8001624:	f1c1 0102 	rsb	r1, r1, #2
 8001628:	6838      	ldr	r0, [r7, #0]
 800162a:	6800      	ldr	r0, [r0, #0]
 800162c:	fb00 f101 	mul.w	r1, r0, r1
 8001630:	00c9      	lsls	r1, r1, #3
 8001632:	2000      	movs	r0, #0
 8001634:	460a      	mov	r2, r1
 8001636:	4603      	mov	r3, r0
 8001638:	a139      	add	r1, pc, #228	; (adr r1, 8001720 <UART_SetConfig+0x1f0>)
 800163a:	e9d1 0100 	ldrd	r0, r1, [r1]
 800163e:	f7fe fdcb 	bl	80001d8 <__aeabi_uldivmod>
 8001642:	4602      	mov	r2, r0
 8001644:	460b      	mov	r3, r1
 8001646:	4613      	mov	r3, r2
 8001648:	60bb      	str	r3, [r7, #8]

        mantissa = uartdiv/1000;
 800164a:	68bb      	ldr	r3, [r7, #8]
 800164c:	4a38      	ldr	r2, [pc, #224]	; (8001730 <UART_SetConfig+0x200>)
 800164e:	fba2 2303 	umull	r2, r3, r2, r3
 8001652:	099b      	lsrs	r3, r3, #6
 8001654:	75bb      	strb	r3, [r7, #22]

        fraction = (uartdiv % 1000) * ((2-(UARTs[UARTx]->CR1 & UART_SAMPLING_MASK)) * 8);
 8001656:	79fb      	ldrb	r3, [r7, #7]
 8001658:	4a34      	ldr	r2, [pc, #208]	; (800172c <UART_SetConfig+0x1fc>)
 800165a:	f852 3023 	ldr.w	r3, [r2, r3, lsl #2]
 800165e:	68db      	ldr	r3, [r3, #12]
 8001660:	f403 4300 	and.w	r3, r3, #32768	; 0x8000
 8001664:	f1c3 0102 	rsb	r1, r3, #2
 8001668:	68ba      	ldr	r2, [r7, #8]
 800166a:	4b31      	ldr	r3, [pc, #196]	; (8001730 <UART_SetConfig+0x200>)
 800166c:	fba3 0302 	umull	r0, r3, r3, r2
 8001670:	099b      	lsrs	r3, r3, #6
 8001672:	f44f 707a 	mov.w	r0, #1000	; 0x3e8
 8001676:	fb00 f303 	mul.w	r3, r0, r3
 800167a:	1ad3      	subs	r3, r2, r3
 800167c:	fb01 f303 	mul.w	r3, r1, r3
 8001680:	00db      	lsls	r3, r3, #3
 8001682:	613b      	str	r3, [r7, #16]
        

        if(fraction % 1000 >= 500)
 8001684:	693a      	ldr	r2, [r7, #16]
 8001686:	4b2a      	ldr	r3, [pc, #168]	; (8001730 <UART_SetConfig+0x200>)
 8001688:	fba3 1302 	umull	r1, r3, r3, r2
 800168c:	099b      	lsrs	r3, r3, #6
 800168e:	f44f 717a 	mov.w	r1, #1000	; 0x3e8
 8001692:	fb01 f303 	mul.w	r3, r1, r3
 8001696:	1ad3      	subs	r3, r2, r3
 8001698:	f5b3 7ffa 	cmp.w	r3, #500	; 0x1f4
 800169c:	d307      	bcc.n	80016ae <UART_SetConfig+0x17e>
        {
            fraction = (fraction/1000) + 1 ;          
 800169e:	693b      	ldr	r3, [r7, #16]
 80016a0:	4a23      	ldr	r2, [pc, #140]	; (8001730 <UART_SetConfig+0x200>)
 80016a2:	fba2 2303 	umull	r2, r3, r2, r3
 80016a6:	099b      	lsrs	r3, r3, #6
 80016a8:	3301      	adds	r3, #1
 80016aa:	613b      	str	r3, [r7, #16]
 80016ac:	e005      	b.n	80016ba <UART_SetConfig+0x18a>
        }
        else
        {
            fraction = fraction/1000;
 80016ae:	693b      	ldr	r3, [r7, #16]
 80016b0:	4a1f      	ldr	r2, [pc, #124]	; (8001730 <UART_SetConfig+0x200>)
 80016b2:	fba2 2303 	umull	r2, r3, r2, r3
 80016b6:	099b      	lsrs	r3, r3, #6
 80016b8:	613b      	str	r3, [r7, #16]
        }

        if( ((UARTs[UARTx]->CR1 & UART_SAMPLING_MASK) == UART_SAMPLING_16) && (fraction > 15) )
 80016ba:	79fb      	ldrb	r3, [r7, #7]
 80016bc:	4a1b      	ldr	r2, [pc, #108]	; (800172c <UART_SetConfig+0x1fc>)
 80016be:	f852 3023 	ldr.w	r3, [r2, r3, lsl #2]
 80016c2:	68db      	ldr	r3, [r3, #12]
 80016c4:	f403 4300 	and.w	r3, r3, #32768	; 0x8000
 80016c8:	2b00      	cmp	r3, #0
 80016ca:	d107      	bne.n	80016dc <UART_SetConfig+0x1ac>
 80016cc:	693b      	ldr	r3, [r7, #16]
 80016ce:	2b0f      	cmp	r3, #15
 80016d0:	d904      	bls.n	80016dc <UART_SetConfig+0x1ac>
        {
            fraction = 0;
 80016d2:	2300      	movs	r3, #0
 80016d4:	613b      	str	r3, [r7, #16]
            mantissa++;
 80016d6:	7dbb      	ldrb	r3, [r7, #22]
 80016d8:	3301      	adds	r3, #1
 80016da:	75bb      	strb	r3, [r7, #22]
        }

        if( ((UARTs[UARTx]->CR1 & UART_SAMPLING_MASK) == UART_SAMPLING_8) && (fraction > 7) )
 80016dc:	79fb      	ldrb	r3, [r7, #7]
 80016de:	4a13      	ldr	r2, [pc, #76]	; (800172c <UART_SetConfig+0x1fc>)
 80016e0:	f852 3023 	ldr.w	r3, [r2, r3, lsl #2]
 80016e4:	68db      	ldr	r3, [r3, #12]
 80016e6:	f403 4300 	and.w	r3, r3, #32768	; 0x8000
 80016ea:	2b00      	cmp	r3, #0
 80016ec:	d007      	beq.n	80016fe <UART_SetConfig+0x1ce>
 80016ee:	693b      	ldr	r3, [r7, #16]
 80016f0:	2b07      	cmp	r3, #7
 80016f2:	d904      	bls.n	80016fe <UART_SetConfig+0x1ce>
        {
            fraction = 0;
 80016f4:	2300      	movs	r3, #0
 80016f6:	613b      	str	r3, [r7, #16]
            mantissa++;
 80016f8:	7dbb      	ldrb	r3, [r7, #22]
 80016fa:	3301      	adds	r3, #1
 80016fc:	75bb      	strb	r3, [r7, #22]
        }

        UARTs[UARTx]->BRR = (mantissa << MANTISSA_POS) | fraction;
 80016fe:	7dbb      	ldrb	r3, [r7, #22]
 8001700:	011b      	lsls	r3, r3, #4
 8001702:	4619      	mov	r1, r3
 8001704:	79fb      	ldrb	r3, [r7, #7]
 8001706:	4a09      	ldr	r2, [pc, #36]	; (800172c <UART_SetConfig+0x1fc>)
 8001708:	f852 3023 	ldr.w	r3, [r2, r3, lsl #2]
 800170c:	693a      	ldr	r2, [r7, #16]
 800170e:	430a      	orrs	r2, r1
 8001710:	609a      	str	r2, [r3, #8]

    }

    return Ret_ErrorStatus;
 8001712:	7dfb      	ldrb	r3, [r7, #23]
}
 8001714:	4618      	mov	r0, r3
 8001716:	3718      	adds	r7, #24
 8001718:	46bd      	mov	sp, r7
 800171a:	bd80      	pop	{r7, pc}
 800171c:	f3af 8000 	nop.w
 8001720:	d21dba00 	.word	0xd21dba00
 8001724:	00000005 	.word	0x00000005
 8001728:	000f423f 	.word	0x000f423f
 800172c:	20000004 	.word	0x20000004
 8001730:	10624dd3 	.word	0x10624dd3

08001734 <UART_ConfigLIN>:
/*                      LIN FUNCTIONALITIES                            */
/* =================================================================== */


UART_ErrorStatus_t UART_ConfigLIN(u8 UARTx, UART_LIN_Config_t* Config)
{
 8001734:	b480      	push	{r7}
 8001736:	b085      	sub	sp, #20
 8001738:	af00      	add	r7, sp, #0
 800173a:	4603      	mov	r3, r0
 800173c:	6039      	str	r1, [r7, #0]
 800173e:	71fb      	strb	r3, [r7, #7]
    UART_ErrorStatus_t Ret_ErrorStatus = UART_OK;
 8001740:	2300      	movs	r3, #0
 8001742:	73fb      	strb	r3, [r7, #15]
    u32 tempReg;

    if(!IS_VALID_UART(UARTx))
 8001744:	79fb      	ldrb	r3, [r7, #7]
 8001746:	2b00      	cmp	r3, #0
 8001748:	d008      	beq.n	800175c <UART_ConfigLIN+0x28>
 800174a:	79fb      	ldrb	r3, [r7, #7]
 800174c:	2b01      	cmp	r3, #1
 800174e:	d005      	beq.n	800175c <UART_ConfigLIN+0x28>
 8001750:	79fb      	ldrb	r3, [r7, #7]
 8001752:	2b02      	cmp	r3, #2
 8001754:	d002      	beq.n	800175c <UART_ConfigLIN+0x28>
    {
        Ret_ErrorStatus = UART_INVALID_UART;
 8001756:	2302      	movs	r3, #2
 8001758:	73fb      	strb	r3, [r7, #15]
 800175a:	e004      	b.n	8001766 <UART_ConfigLIN+0x32>
    }
    else if( Config == NULL )
 800175c:	683b      	ldr	r3, [r7, #0]
 800175e:	2b00      	cmp	r3, #0
 8001760:	d101      	bne.n	8001766 <UART_ConfigLIN+0x32>
    {
        Ret_ErrorStatus = UART_NULL_PTR;
 8001762:	2308      	movs	r3, #8
 8001764:	73fb      	strb	r3, [r7, #15]
    else
    {
        /* do nothing */
    }

    if(Ret_ErrorStatus == UART_OK)
 8001766:	7bfb      	ldrb	r3, [r7, #15]
 8001768:	2b00      	cmp	r3, #0
 800176a:	d116      	bne.n	800179a <UART_ConfigLIN+0x66>
    {
        tempReg = UARTs[UARTx]->CR2;
 800176c:	79fb      	ldrb	r3, [r7, #7]
 800176e:	4a0e      	ldr	r2, [pc, #56]	; (80017a8 <UART_ConfigLIN+0x74>)
 8001770:	f852 3023 	ldr.w	r3, [r2, r3, lsl #2]
 8001774:	691b      	ldr	r3, [r3, #16]
 8001776:	60bb      	str	r3, [r7, #8]
        tempReg &= (~UART_LINEN_MASK) | (~UART_LBDIE_MASK) | (~UART_LBDL_MASK);
        tempReg |= (Config->State) | (Config->BreakDetectLength) | (Config->BreakDetectInterrupt);
 8001778:	683b      	ldr	r3, [r7, #0]
 800177a:	681a      	ldr	r2, [r3, #0]
 800177c:	683b      	ldr	r3, [r7, #0]
 800177e:	685b      	ldr	r3, [r3, #4]
 8001780:	431a      	orrs	r2, r3
 8001782:	683b      	ldr	r3, [r7, #0]
 8001784:	689b      	ldr	r3, [r3, #8]
 8001786:	4313      	orrs	r3, r2
 8001788:	68ba      	ldr	r2, [r7, #8]
 800178a:	4313      	orrs	r3, r2
 800178c:	60bb      	str	r3, [r7, #8]
        UARTs[UARTx]->CR2 = tempReg;
 800178e:	79fb      	ldrb	r3, [r7, #7]
 8001790:	4a05      	ldr	r2, [pc, #20]	; (80017a8 <UART_ConfigLIN+0x74>)
 8001792:	f852 3023 	ldr.w	r3, [r2, r3, lsl #2]
 8001796:	68ba      	ldr	r2, [r7, #8]
 8001798:	611a      	str	r2, [r3, #16]
    }

    return Ret_ErrorStatus;
 800179a:	7bfb      	ldrb	r3, [r7, #15]
}
 800179c:	4618      	mov	r0, r3
 800179e:	3714      	adds	r7, #20
 80017a0:	46bd      	mov	sp, r7
 80017a2:	f85d 7b04 	ldr.w	r7, [sp], #4
 80017a6:	4770      	bx	lr
 80017a8:	20000004 	.word	0x20000004

080017ac <UART_TXLINBreak>:



UART_ErrorStatus_t UART_TXLINBreak(u8 UARTx)
{
 80017ac:	b480      	push	{r7}
 80017ae:	b085      	sub	sp, #20
 80017b0:	af00      	add	r7, sp, #0
 80017b2:	4603      	mov	r3, r0
 80017b4:	71fb      	strb	r3, [r7, #7]
    UART_ErrorStatus_t Ret_ErrorStatus = UART_OK;
 80017b6:	2300      	movs	r3, #0
 80017b8:	73fb      	strb	r3, [r7, #15]

    if(!IS_VALID_UART(UARTx))
 80017ba:	79fb      	ldrb	r3, [r7, #7]
 80017bc:	2b00      	cmp	r3, #0
 80017be:	d007      	beq.n	80017d0 <UART_TXLINBreak+0x24>
 80017c0:	79fb      	ldrb	r3, [r7, #7]
 80017c2:	2b01      	cmp	r3, #1
 80017c4:	d004      	beq.n	80017d0 <UART_TXLINBreak+0x24>
 80017c6:	79fb      	ldrb	r3, [r7, #7]
 80017c8:	2b02      	cmp	r3, #2
 80017ca:	d001      	beq.n	80017d0 <UART_TXLINBreak+0x24>
    {
        Ret_ErrorStatus = UART_INVALID_UART;
 80017cc:	2302      	movs	r3, #2
 80017ce:	73fb      	strb	r3, [r7, #15]
    {
        /* do nothing */
    }


    if(Ret_ErrorStatus == UART_OK)
 80017d0:	7bfb      	ldrb	r3, [r7, #15]
 80017d2:	2b00      	cmp	r3, #0
 80017d4:	d10b      	bne.n	80017ee <UART_TXLINBreak+0x42>
    {
        /* send break */
        UARTs[UARTx]->CR1 |= UART_LIN_SEND_BREAK;
 80017d6:	79fb      	ldrb	r3, [r7, #7]
 80017d8:	4a08      	ldr	r2, [pc, #32]	; (80017fc <UART_TXLINBreak+0x50>)
 80017da:	f852 3023 	ldr.w	r3, [r2, r3, lsl #2]
 80017de:	68da      	ldr	r2, [r3, #12]
 80017e0:	79fb      	ldrb	r3, [r7, #7]
 80017e2:	4906      	ldr	r1, [pc, #24]	; (80017fc <UART_TXLINBreak+0x50>)
 80017e4:	f851 3023 	ldr.w	r3, [r1, r3, lsl #2]
 80017e8:	f042 0201 	orr.w	r2, r2, #1
 80017ec:	60da      	str	r2, [r3, #12]
    }

    return Ret_ErrorStatus;
 80017ee:	7bfb      	ldrb	r3, [r7, #15]
}
 80017f0:	4618      	mov	r0, r3
 80017f2:	3714      	adds	r7, #20
 80017f4:	46bd      	mov	sp, r7
 80017f6:	f85d 7b04 	ldr.w	r7, [sp], #4
 80017fa:	4770      	bx	lr
 80017fc:	20000004 	.word	0x20000004

08001800 <UART_SetLBDCallback>:


UART_ErrorStatus_t UART_SetLBDCallback(u8 UARTx, UART_LBDCallback_t cb)
{
 8001800:	b480      	push	{r7}
 8001802:	b085      	sub	sp, #20
 8001804:	af00      	add	r7, sp, #0
 8001806:	4603      	mov	r3, r0
 8001808:	6039      	str	r1, [r7, #0]
 800180a:	71fb      	strb	r3, [r7, #7]
    UART_ErrorStatus_t Ret_ErrorStatus = UART_OK;
 800180c:	2300      	movs	r3, #0
 800180e:	73fb      	strb	r3, [r7, #15]

    if(!IS_VALID_UART(UARTx))
 8001810:	79fb      	ldrb	r3, [r7, #7]
 8001812:	2b00      	cmp	r3, #0
 8001814:	d007      	beq.n	8001826 <UART_SetLBDCallback+0x26>
 8001816:	79fb      	ldrb	r3, [r7, #7]
 8001818:	2b01      	cmp	r3, #1
 800181a:	d004      	beq.n	8001826 <UART_SetLBDCallback+0x26>
 800181c:	79fb      	ldrb	r3, [r7, #7]
 800181e:	2b02      	cmp	r3, #2
 8001820:	d001      	beq.n	8001826 <UART_SetLBDCallback+0x26>
    {
        Ret_ErrorStatus = UART_INVALID_UART;
 8001822:	2302      	movs	r3, #2
 8001824:	73fb      	strb	r3, [r7, #15]
    else
    {
        /* do nothing */
    }

    if(Ret_ErrorStatus == UART_OK)
 8001826:	7bfb      	ldrb	r3, [r7, #15]
 8001828:	2b00      	cmp	r3, #0
 800182a:	d104      	bne.n	8001836 <UART_SetLBDCallback+0x36>
    {
        LBDCallbacks[UARTx] = cb;
 800182c:	79fb      	ldrb	r3, [r7, #7]
 800182e:	4905      	ldr	r1, [pc, #20]	; (8001844 <UART_SetLBDCallback+0x44>)
 8001830:	683a      	ldr	r2, [r7, #0]
 8001832:	f841 2023 	str.w	r2, [r1, r3, lsl #2]
    }

    return Ret_ErrorStatus;
 8001836:	7bfb      	ldrb	r3, [r7, #15]
}
 8001838:	4618      	mov	r0, r3
 800183a:	3714      	adds	r7, #20
 800183c:	46bd      	mov	sp, r7
 800183e:	f85d 7b04 	ldr.w	r7, [sp], #4
 8001842:	4770      	bx	lr
 8001844:	20000100 	.word	0x20000100

08001848 <USART1_IRQHandler>:
/*                              HANDLERS                               */
/* =================================================================== */


void USART1_IRQHandler(void)
{
 8001848:	b580      	push	{r7, lr}
 800184a:	af00      	add	r7, sp, #0
    /* NOTE: If a break is detected and interrupt happens, the TXE flag may be risen so
        i choose to check for either the LIN break detection interrupt or the TXE and RXNE interrupt
        becuase if i don't, everytime LBD interrupt happens the TXE will be handled if its flag is set
        which will cause problems */
    if(UARTs[UART1]->SR & UART_LBD_MASK)
 800184c:	4b3a      	ldr	r3, [pc, #232]	; (8001938 <USART1_IRQHandler+0xf0>)
 800184e:	681b      	ldr	r3, [r3, #0]
 8001850:	681b      	ldr	r3, [r3, #0]
 8001852:	f403 7380 	and.w	r3, r3, #256	; 0x100
 8001856:	2b00      	cmp	r3, #0
 8001858:	d00f      	beq.n	800187a <USART1_IRQHandler+0x32>
    {
        /* Clear LBD Flag */
        UARTs[UART1]->SR &= ~UART_LBD_MASK;
 800185a:	4b37      	ldr	r3, [pc, #220]	; (8001938 <USART1_IRQHandler+0xf0>)
 800185c:	681b      	ldr	r3, [r3, #0]
 800185e:	681a      	ldr	r2, [r3, #0]
 8001860:	4b35      	ldr	r3, [pc, #212]	; (8001938 <USART1_IRQHandler+0xf0>)
 8001862:	681b      	ldr	r3, [r3, #0]
 8001864:	f422 7280 	bic.w	r2, r2, #256	; 0x100
 8001868:	601a      	str	r2, [r3, #0]

        /* Call LBD Interrupt CB function if not NULL*/
        if(LBDCallbacks[UART1])
 800186a:	4b34      	ldr	r3, [pc, #208]	; (800193c <USART1_IRQHandler+0xf4>)
 800186c:	681b      	ldr	r3, [r3, #0]
 800186e:	2b00      	cmp	r3, #0
 8001870:	d05f      	beq.n	8001932 <USART1_IRQHandler+0xea>
        {
            LBDCallbacks[UART1]();
 8001872:	4b32      	ldr	r3, [pc, #200]	; (800193c <USART1_IRQHandler+0xf4>)
 8001874:	681b      	ldr	r3, [r3, #0]
 8001876:	4798      	blx	r3
                }

            }    
        }
    }    
} 
 8001878:	e05b      	b.n	8001932 <USART1_IRQHandler+0xea>
        if(UARTs[UART1]->SR & UART_TXE_MASK)
 800187a:	4b2f      	ldr	r3, [pc, #188]	; (8001938 <USART1_IRQHandler+0xf0>)
 800187c:	681b      	ldr	r3, [r3, #0]
 800187e:	681b      	ldr	r3, [r3, #0]
 8001880:	f003 0380 	and.w	r3, r3, #128	; 0x80
 8001884:	2b00      	cmp	r3, #0
 8001886:	d023      	beq.n	80018d0 <USART1_IRQHandler+0x88>
            if(TXRequests[UART1_INDEX].Buffer.CurrIdx < TXRequests[UART1_INDEX].Buffer.Length)
 8001888:	4b2d      	ldr	r3, [pc, #180]	; (8001940 <USART1_IRQHandler+0xf8>)
 800188a:	88da      	ldrh	r2, [r3, #6]
 800188c:	4b2c      	ldr	r3, [pc, #176]	; (8001940 <USART1_IRQHandler+0xf8>)
 800188e:	889b      	ldrh	r3, [r3, #4]
 8001890:	429a      	cmp	r2, r3
 8001892:	d20f      	bcs.n	80018b4 <USART1_IRQHandler+0x6c>
                UARTs[UART1]->DR = TXRequests[UART1_INDEX].Buffer.Data[TXRequests[UART1_INDEX].Buffer.CurrIdx];
 8001894:	4b2a      	ldr	r3, [pc, #168]	; (8001940 <USART1_IRQHandler+0xf8>)
 8001896:	681b      	ldr	r3, [r3, #0]
 8001898:	4a29      	ldr	r2, [pc, #164]	; (8001940 <USART1_IRQHandler+0xf8>)
 800189a:	88d2      	ldrh	r2, [r2, #6]
 800189c:	4413      	add	r3, r2
 800189e:	781a      	ldrb	r2, [r3, #0]
 80018a0:	4b25      	ldr	r3, [pc, #148]	; (8001938 <USART1_IRQHandler+0xf0>)
 80018a2:	681b      	ldr	r3, [r3, #0]
 80018a4:	605a      	str	r2, [r3, #4]
                TXRequests[UART1_INDEX].Buffer.CurrIdx++;
 80018a6:	4b26      	ldr	r3, [pc, #152]	; (8001940 <USART1_IRQHandler+0xf8>)
 80018a8:	88db      	ldrh	r3, [r3, #6]
 80018aa:	3301      	adds	r3, #1
 80018ac:	b29a      	uxth	r2, r3
 80018ae:	4b24      	ldr	r3, [pc, #144]	; (8001940 <USART1_IRQHandler+0xf8>)
 80018b0:	80da      	strh	r2, [r3, #6]
 80018b2:	e00d      	b.n	80018d0 <USART1_IRQHandler+0x88>
                TXRequests[UART1_INDEX].State = READY;
 80018b4:	4b22      	ldr	r3, [pc, #136]	; (8001940 <USART1_IRQHandler+0xf8>)
 80018b6:	2200      	movs	r2, #0
 80018b8:	721a      	strb	r2, [r3, #8]
                UARTs[UART1]->CR1 &= ~UART_TXEIE_MASK;
 80018ba:	4b1f      	ldr	r3, [pc, #124]	; (8001938 <USART1_IRQHandler+0xf0>)
 80018bc:	681b      	ldr	r3, [r3, #0]
 80018be:	68da      	ldr	r2, [r3, #12]
 80018c0:	4b1d      	ldr	r3, [pc, #116]	; (8001938 <USART1_IRQHandler+0xf0>)
 80018c2:	681b      	ldr	r3, [r3, #0]
 80018c4:	f022 0280 	bic.w	r2, r2, #128	; 0x80
 80018c8:	60da      	str	r2, [r3, #12]
                TXRequests[UART1_INDEX].Cb();
 80018ca:	4b1d      	ldr	r3, [pc, #116]	; (8001940 <USART1_IRQHandler+0xf8>)
 80018cc:	68db      	ldr	r3, [r3, #12]
 80018ce:	4798      	blx	r3
        if(UARTs[UART1]->SR & UART_RXNE_MASK)
 80018d0:	4b19      	ldr	r3, [pc, #100]	; (8001938 <USART1_IRQHandler+0xf0>)
 80018d2:	681b      	ldr	r3, [r3, #0]
 80018d4:	681b      	ldr	r3, [r3, #0]
 80018d6:	f003 0320 	and.w	r3, r3, #32
 80018da:	2b00      	cmp	r3, #0
 80018dc:	d029      	beq.n	8001932 <USART1_IRQHandler+0xea>
            if(RXRequests[UART1_INDEX].Buffer.CurrIdx < RXRequests[UART1_INDEX].Buffer.Length)
 80018de:	4b19      	ldr	r3, [pc, #100]	; (8001944 <USART1_IRQHandler+0xfc>)
 80018e0:	88da      	ldrh	r2, [r3, #6]
 80018e2:	4b18      	ldr	r3, [pc, #96]	; (8001944 <USART1_IRQHandler+0xfc>)
 80018e4:	889b      	ldrh	r3, [r3, #4]
 80018e6:	429a      	cmp	r2, r3
 80018e8:	d223      	bcs.n	8001932 <USART1_IRQHandler+0xea>
                RXRequests[UART1_INDEX].Buffer.Data[RXRequests[UART1_INDEX].Buffer.CurrIdx] = UARTs[UART1]->DR;
 80018ea:	4b13      	ldr	r3, [pc, #76]	; (8001938 <USART1_IRQHandler+0xf0>)
 80018ec:	681b      	ldr	r3, [r3, #0]
 80018ee:	6859      	ldr	r1, [r3, #4]
 80018f0:	4b14      	ldr	r3, [pc, #80]	; (8001944 <USART1_IRQHandler+0xfc>)
 80018f2:	681b      	ldr	r3, [r3, #0]
 80018f4:	4a13      	ldr	r2, [pc, #76]	; (8001944 <USART1_IRQHandler+0xfc>)
 80018f6:	88d2      	ldrh	r2, [r2, #6]
 80018f8:	4413      	add	r3, r2
 80018fa:	b2ca      	uxtb	r2, r1
 80018fc:	701a      	strb	r2, [r3, #0]
                RXRequests[UART1_INDEX].Buffer.CurrIdx++;
 80018fe:	4b11      	ldr	r3, [pc, #68]	; (8001944 <USART1_IRQHandler+0xfc>)
 8001900:	88db      	ldrh	r3, [r3, #6]
 8001902:	3301      	adds	r3, #1
 8001904:	b29a      	uxth	r2, r3
 8001906:	4b0f      	ldr	r3, [pc, #60]	; (8001944 <USART1_IRQHandler+0xfc>)
 8001908:	80da      	strh	r2, [r3, #6]
                if(RXRequests[UART1_INDEX].Buffer.CurrIdx == RXRequests[UART1_INDEX].Buffer.Length)
 800190a:	4b0e      	ldr	r3, [pc, #56]	; (8001944 <USART1_IRQHandler+0xfc>)
 800190c:	88da      	ldrh	r2, [r3, #6]
 800190e:	4b0d      	ldr	r3, [pc, #52]	; (8001944 <USART1_IRQHandler+0xfc>)
 8001910:	889b      	ldrh	r3, [r3, #4]
 8001912:	429a      	cmp	r2, r3
 8001914:	d10d      	bne.n	8001932 <USART1_IRQHandler+0xea>
                    RXRequests[UART1_INDEX].State = READY;
 8001916:	4b0b      	ldr	r3, [pc, #44]	; (8001944 <USART1_IRQHandler+0xfc>)
 8001918:	2200      	movs	r2, #0
 800191a:	721a      	strb	r2, [r3, #8]
                    UARTs[UART1]->CR1 &= ~UART_RXNEIE_MASK;
 800191c:	4b06      	ldr	r3, [pc, #24]	; (8001938 <USART1_IRQHandler+0xf0>)
 800191e:	681b      	ldr	r3, [r3, #0]
 8001920:	68da      	ldr	r2, [r3, #12]
 8001922:	4b05      	ldr	r3, [pc, #20]	; (8001938 <USART1_IRQHandler+0xf0>)
 8001924:	681b      	ldr	r3, [r3, #0]
 8001926:	f022 0220 	bic.w	r2, r2, #32
 800192a:	60da      	str	r2, [r3, #12]
                    RXRequests[UART1_INDEX].Cb();
 800192c:	4b05      	ldr	r3, [pc, #20]	; (8001944 <USART1_IRQHandler+0xfc>)
 800192e:	68db      	ldr	r3, [r3, #12]
 8001930:	4798      	blx	r3
} 
 8001932:	bf00      	nop
 8001934:	bd80      	pop	{r7, pc}
 8001936:	bf00      	nop
 8001938:	20000004 	.word	0x20000004
 800193c:	20000100 	.word	0x20000100
 8001940:	200000a0 	.word	0x200000a0
 8001944:	200000d0 	.word	0x200000d0

08001948 <USART2_IRQHandler>:


void USART2_IRQHandler(void)
{
 8001948:	b580      	push	{r7, lr}
 800194a:	af00      	add	r7, sp, #0
    /* NOTE: If a break is detected and interrupt happens, the TXE flag may be risen so
        i choose to check for either the LIN break detection interrupt or the TXE and RXNE interrupt
        becuase if i don't, everytime LBD interrupt happens the TXE will be handled if its flag is set
        which will cause problems */
	if(UARTs[UART2]->SR & UART_LBD_MASK)
 800194c:	4b3a      	ldr	r3, [pc, #232]	; (8001a38 <USART2_IRQHandler+0xf0>)
 800194e:	685b      	ldr	r3, [r3, #4]
 8001950:	681b      	ldr	r3, [r3, #0]
 8001952:	f403 7380 	and.w	r3, r3, #256	; 0x100
 8001956:	2b00      	cmp	r3, #0
 8001958:	d00f      	beq.n	800197a <USART2_IRQHandler+0x32>
	{
		/* Clear LBD Flag */
		UARTs[UART2]->SR &= ~UART_LBD_MASK;
 800195a:	4b37      	ldr	r3, [pc, #220]	; (8001a38 <USART2_IRQHandler+0xf0>)
 800195c:	685b      	ldr	r3, [r3, #4]
 800195e:	681a      	ldr	r2, [r3, #0]
 8001960:	4b35      	ldr	r3, [pc, #212]	; (8001a38 <USART2_IRQHandler+0xf0>)
 8001962:	685b      	ldr	r3, [r3, #4]
 8001964:	f422 7280 	bic.w	r2, r2, #256	; 0x100
 8001968:	601a      	str	r2, [r3, #0]

		/* Call LBD Interrupt CB function if not NULL*/
		if(LBDCallbacks[UART2])
 800196a:	4b34      	ldr	r3, [pc, #208]	; (8001a3c <USART2_IRQHandler+0xf4>)
 800196c:	685b      	ldr	r3, [r3, #4]
 800196e:	2b00      	cmp	r3, #0
 8001970:	d05f      	beq.n	8001a32 <USART2_IRQHandler+0xea>
		{
			LBDCallbacks[UART2]();
 8001972:	4b32      	ldr	r3, [pc, #200]	; (8001a3c <USART2_IRQHandler+0xf4>)
 8001974:	685b      	ldr	r3, [r3, #4]
 8001976:	4798      	blx	r3
	            }

	        }
	    }
	}
} 
 8001978:	e05b      	b.n	8001a32 <USART2_IRQHandler+0xea>
	    if(UARTs[UART2]->SR & UART_TXE_MASK)
 800197a:	4b2f      	ldr	r3, [pc, #188]	; (8001a38 <USART2_IRQHandler+0xf0>)
 800197c:	685b      	ldr	r3, [r3, #4]
 800197e:	681b      	ldr	r3, [r3, #0]
 8001980:	f003 0380 	and.w	r3, r3, #128	; 0x80
 8001984:	2b00      	cmp	r3, #0
 8001986:	d023      	beq.n	80019d0 <USART2_IRQHandler+0x88>
	        if(TXRequests[UART2_INDEX].Buffer.CurrIdx < TXRequests[UART2_INDEX].Buffer.Length)
 8001988:	4b2d      	ldr	r3, [pc, #180]	; (8001a40 <USART2_IRQHandler+0xf8>)
 800198a:	8ada      	ldrh	r2, [r3, #22]
 800198c:	4b2c      	ldr	r3, [pc, #176]	; (8001a40 <USART2_IRQHandler+0xf8>)
 800198e:	8a9b      	ldrh	r3, [r3, #20]
 8001990:	429a      	cmp	r2, r3
 8001992:	d20f      	bcs.n	80019b4 <USART2_IRQHandler+0x6c>
	            UARTs[UART2]->DR = TXRequests[UART2_INDEX].Buffer.Data[TXRequests[UART2_INDEX].Buffer.CurrIdx];
 8001994:	4b2a      	ldr	r3, [pc, #168]	; (8001a40 <USART2_IRQHandler+0xf8>)
 8001996:	691b      	ldr	r3, [r3, #16]
 8001998:	4a29      	ldr	r2, [pc, #164]	; (8001a40 <USART2_IRQHandler+0xf8>)
 800199a:	8ad2      	ldrh	r2, [r2, #22]
 800199c:	4413      	add	r3, r2
 800199e:	781a      	ldrb	r2, [r3, #0]
 80019a0:	4b25      	ldr	r3, [pc, #148]	; (8001a38 <USART2_IRQHandler+0xf0>)
 80019a2:	685b      	ldr	r3, [r3, #4]
 80019a4:	605a      	str	r2, [r3, #4]
	            TXRequests[UART2_INDEX].Buffer.CurrIdx++;
 80019a6:	4b26      	ldr	r3, [pc, #152]	; (8001a40 <USART2_IRQHandler+0xf8>)
 80019a8:	8adb      	ldrh	r3, [r3, #22]
 80019aa:	3301      	adds	r3, #1
 80019ac:	b29a      	uxth	r2, r3
 80019ae:	4b24      	ldr	r3, [pc, #144]	; (8001a40 <USART2_IRQHandler+0xf8>)
 80019b0:	82da      	strh	r2, [r3, #22]
 80019b2:	e00d      	b.n	80019d0 <USART2_IRQHandler+0x88>
	            TXRequests[UART2_INDEX].State = READY;
 80019b4:	4b22      	ldr	r3, [pc, #136]	; (8001a40 <USART2_IRQHandler+0xf8>)
 80019b6:	2200      	movs	r2, #0
 80019b8:	761a      	strb	r2, [r3, #24]
	            UARTs[UART2]->CR1 &= ~UART_TXEIE_MASK;
 80019ba:	4b1f      	ldr	r3, [pc, #124]	; (8001a38 <USART2_IRQHandler+0xf0>)
 80019bc:	685b      	ldr	r3, [r3, #4]
 80019be:	68da      	ldr	r2, [r3, #12]
 80019c0:	4b1d      	ldr	r3, [pc, #116]	; (8001a38 <USART2_IRQHandler+0xf0>)
 80019c2:	685b      	ldr	r3, [r3, #4]
 80019c4:	f022 0280 	bic.w	r2, r2, #128	; 0x80
 80019c8:	60da      	str	r2, [r3, #12]
	            TXRequests[UART2_INDEX].Cb();
 80019ca:	4b1d      	ldr	r3, [pc, #116]	; (8001a40 <USART2_IRQHandler+0xf8>)
 80019cc:	69db      	ldr	r3, [r3, #28]
 80019ce:	4798      	blx	r3
	    if(UARTs[UART2]->SR & UART_RXNE_MASK)
 80019d0:	4b19      	ldr	r3, [pc, #100]	; (8001a38 <USART2_IRQHandler+0xf0>)
 80019d2:	685b      	ldr	r3, [r3, #4]
 80019d4:	681b      	ldr	r3, [r3, #0]
 80019d6:	f003 0320 	and.w	r3, r3, #32
 80019da:	2b00      	cmp	r3, #0
 80019dc:	d029      	beq.n	8001a32 <USART2_IRQHandler+0xea>
	        if(RXRequests[UART2_INDEX].Buffer.CurrIdx < RXRequests[UART2_INDEX].Buffer.Length)
 80019de:	4b19      	ldr	r3, [pc, #100]	; (8001a44 <USART2_IRQHandler+0xfc>)
 80019e0:	8ada      	ldrh	r2, [r3, #22]
 80019e2:	4b18      	ldr	r3, [pc, #96]	; (8001a44 <USART2_IRQHandler+0xfc>)
 80019e4:	8a9b      	ldrh	r3, [r3, #20]
 80019e6:	429a      	cmp	r2, r3
 80019e8:	d223      	bcs.n	8001a32 <USART2_IRQHandler+0xea>
	            RXRequests[UART2_INDEX].Buffer.Data[RXRequests[UART2_INDEX].Buffer.CurrIdx] = UARTs[UART2]->DR;
 80019ea:	4b13      	ldr	r3, [pc, #76]	; (8001a38 <USART2_IRQHandler+0xf0>)
 80019ec:	685b      	ldr	r3, [r3, #4]
 80019ee:	6859      	ldr	r1, [r3, #4]
 80019f0:	4b14      	ldr	r3, [pc, #80]	; (8001a44 <USART2_IRQHandler+0xfc>)
 80019f2:	691b      	ldr	r3, [r3, #16]
 80019f4:	4a13      	ldr	r2, [pc, #76]	; (8001a44 <USART2_IRQHandler+0xfc>)
 80019f6:	8ad2      	ldrh	r2, [r2, #22]
 80019f8:	4413      	add	r3, r2
 80019fa:	b2ca      	uxtb	r2, r1
 80019fc:	701a      	strb	r2, [r3, #0]
	            RXRequests[UART2_INDEX].Buffer.CurrIdx++;
 80019fe:	4b11      	ldr	r3, [pc, #68]	; (8001a44 <USART2_IRQHandler+0xfc>)
 8001a00:	8adb      	ldrh	r3, [r3, #22]
 8001a02:	3301      	adds	r3, #1
 8001a04:	b29a      	uxth	r2, r3
 8001a06:	4b0f      	ldr	r3, [pc, #60]	; (8001a44 <USART2_IRQHandler+0xfc>)
 8001a08:	82da      	strh	r2, [r3, #22]
	            if(RXRequests[UART2_INDEX].Buffer.CurrIdx == RXRequests[UART2_INDEX].Buffer.Length)
 8001a0a:	4b0e      	ldr	r3, [pc, #56]	; (8001a44 <USART2_IRQHandler+0xfc>)
 8001a0c:	8ada      	ldrh	r2, [r3, #22]
 8001a0e:	4b0d      	ldr	r3, [pc, #52]	; (8001a44 <USART2_IRQHandler+0xfc>)
 8001a10:	8a9b      	ldrh	r3, [r3, #20]
 8001a12:	429a      	cmp	r2, r3
 8001a14:	d10d      	bne.n	8001a32 <USART2_IRQHandler+0xea>
	                RXRequests[UART2_INDEX].State = READY;
 8001a16:	4b0b      	ldr	r3, [pc, #44]	; (8001a44 <USART2_IRQHandler+0xfc>)
 8001a18:	2200      	movs	r2, #0
 8001a1a:	761a      	strb	r2, [r3, #24]
	                UARTs[UART2]->CR1 &= ~UART_RXNEIE_MASK;
 8001a1c:	4b06      	ldr	r3, [pc, #24]	; (8001a38 <USART2_IRQHandler+0xf0>)
 8001a1e:	685b      	ldr	r3, [r3, #4]
 8001a20:	68da      	ldr	r2, [r3, #12]
 8001a22:	4b05      	ldr	r3, [pc, #20]	; (8001a38 <USART2_IRQHandler+0xf0>)
 8001a24:	685b      	ldr	r3, [r3, #4]
 8001a26:	f022 0220 	bic.w	r2, r2, #32
 8001a2a:	60da      	str	r2, [r3, #12]
	                RXRequests[UART2_INDEX].Cb();
 8001a2c:	4b05      	ldr	r3, [pc, #20]	; (8001a44 <USART2_IRQHandler+0xfc>)
 8001a2e:	69db      	ldr	r3, [r3, #28]
 8001a30:	4798      	blx	r3
} 
 8001a32:	bf00      	nop
 8001a34:	bd80      	pop	{r7, pc}
 8001a36:	bf00      	nop
 8001a38:	20000004 	.word	0x20000004
 8001a3c:	20000100 	.word	0x20000100
 8001a40:	200000a0 	.word	0x200000a0
 8001a44:	200000d0 	.word	0x200000d0

08001a48 <USART6_IRQHandler>:


void USART6_IRQHandler(void)
{
 8001a48:	b580      	push	{r7, lr}
 8001a4a:	af00      	add	r7, sp, #0
    /* NOTE: If a break is detected and interrupt happens, the TXE flag may be risen so
        i choose to check for either the LIN break detection interrupt or the TXE and RXNE interrupt
        becuase if i don't, everytime LBD interrupt happens the TXE will be handled if its flag is set
        which will cause problems */

    if(UARTs[UART6]->SR & UART_LBD_MASK)
 8001a4c:	4b3b      	ldr	r3, [pc, #236]	; (8001b3c <USART6_IRQHandler+0xf4>)
 8001a4e:	689b      	ldr	r3, [r3, #8]
 8001a50:	681b      	ldr	r3, [r3, #0]
 8001a52:	f403 7380 	and.w	r3, r3, #256	; 0x100
 8001a56:	2b00      	cmp	r3, #0
 8001a58:	d00f      	beq.n	8001a7a <USART6_IRQHandler+0x32>
    {
        /* Clear LBD Flag */
        UARTs[UART6]->SR &= ~UART_LBD_MASK;
 8001a5a:	4b38      	ldr	r3, [pc, #224]	; (8001b3c <USART6_IRQHandler+0xf4>)
 8001a5c:	689b      	ldr	r3, [r3, #8]
 8001a5e:	681a      	ldr	r2, [r3, #0]
 8001a60:	4b36      	ldr	r3, [pc, #216]	; (8001b3c <USART6_IRQHandler+0xf4>)
 8001a62:	689b      	ldr	r3, [r3, #8]
 8001a64:	f422 7280 	bic.w	r2, r2, #256	; 0x100
 8001a68:	601a      	str	r2, [r3, #0]

        /* Call LBD Interrupt CB function if not NULL*/
        if(LBDCallbacks[UART6])
 8001a6a:	4b35      	ldr	r3, [pc, #212]	; (8001b40 <USART6_IRQHandler+0xf8>)
 8001a6c:	689b      	ldr	r3, [r3, #8]
 8001a6e:	2b00      	cmp	r3, #0
 8001a70:	d061      	beq.n	8001b36 <USART6_IRQHandler+0xee>
        {
            LBDCallbacks[UART6]();
 8001a72:	4b33      	ldr	r3, [pc, #204]	; (8001b40 <USART6_IRQHandler+0xf8>)
 8001a74:	689b      	ldr	r3, [r3, #8]
 8001a76:	4798      	blx	r3

            }    
        }

    }  
} 
 8001a78:	e05d      	b.n	8001b36 <USART6_IRQHandler+0xee>
        if(UARTs[UART6]->SR & UART_TXE_MASK)
 8001a7a:	4b30      	ldr	r3, [pc, #192]	; (8001b3c <USART6_IRQHandler+0xf4>)
 8001a7c:	689b      	ldr	r3, [r3, #8]
 8001a7e:	681b      	ldr	r3, [r3, #0]
 8001a80:	f003 0380 	and.w	r3, r3, #128	; 0x80
 8001a84:	2b00      	cmp	r3, #0
 8001a86:	d024      	beq.n	8001ad2 <USART6_IRQHandler+0x8a>
            if(TXRequests[UART6_INDEX].Buffer.CurrIdx < TXRequests[UART6_INDEX].Buffer.Length)
 8001a88:	4b2e      	ldr	r3, [pc, #184]	; (8001b44 <USART6_IRQHandler+0xfc>)
 8001a8a:	8cda      	ldrh	r2, [r3, #38]	; 0x26
 8001a8c:	4b2d      	ldr	r3, [pc, #180]	; (8001b44 <USART6_IRQHandler+0xfc>)
 8001a8e:	8c9b      	ldrh	r3, [r3, #36]	; 0x24
 8001a90:	429a      	cmp	r2, r3
 8001a92:	d20f      	bcs.n	8001ab4 <USART6_IRQHandler+0x6c>
                UARTs[UART6]->DR = TXRequests[UART6_INDEX].Buffer.Data[TXRequests[UART6_INDEX].Buffer.CurrIdx];
 8001a94:	4b2b      	ldr	r3, [pc, #172]	; (8001b44 <USART6_IRQHandler+0xfc>)
 8001a96:	6a1b      	ldr	r3, [r3, #32]
 8001a98:	4a2a      	ldr	r2, [pc, #168]	; (8001b44 <USART6_IRQHandler+0xfc>)
 8001a9a:	8cd2      	ldrh	r2, [r2, #38]	; 0x26
 8001a9c:	4413      	add	r3, r2
 8001a9e:	781a      	ldrb	r2, [r3, #0]
 8001aa0:	4b26      	ldr	r3, [pc, #152]	; (8001b3c <USART6_IRQHandler+0xf4>)
 8001aa2:	689b      	ldr	r3, [r3, #8]
 8001aa4:	605a      	str	r2, [r3, #4]
                TXRequests[UART6_INDEX].Buffer.CurrIdx++;
 8001aa6:	4b27      	ldr	r3, [pc, #156]	; (8001b44 <USART6_IRQHandler+0xfc>)
 8001aa8:	8cdb      	ldrh	r3, [r3, #38]	; 0x26
 8001aaa:	3301      	adds	r3, #1
 8001aac:	b29a      	uxth	r2, r3
 8001aae:	4b25      	ldr	r3, [pc, #148]	; (8001b44 <USART6_IRQHandler+0xfc>)
 8001ab0:	84da      	strh	r2, [r3, #38]	; 0x26
 8001ab2:	e00e      	b.n	8001ad2 <USART6_IRQHandler+0x8a>
                TXRequests[UART6_INDEX].State = READY;
 8001ab4:	4b23      	ldr	r3, [pc, #140]	; (8001b44 <USART6_IRQHandler+0xfc>)
 8001ab6:	2200      	movs	r2, #0
 8001ab8:	f883 2028 	strb.w	r2, [r3, #40]	; 0x28
                UARTs[UART6]->CR1 &= ~UART_TXEIE_MASK;
 8001abc:	4b1f      	ldr	r3, [pc, #124]	; (8001b3c <USART6_IRQHandler+0xf4>)
 8001abe:	689b      	ldr	r3, [r3, #8]
 8001ac0:	68da      	ldr	r2, [r3, #12]
 8001ac2:	4b1e      	ldr	r3, [pc, #120]	; (8001b3c <USART6_IRQHandler+0xf4>)
 8001ac4:	689b      	ldr	r3, [r3, #8]
 8001ac6:	f022 0280 	bic.w	r2, r2, #128	; 0x80
 8001aca:	60da      	str	r2, [r3, #12]
                TXRequests[UART6_INDEX].Cb();
 8001acc:	4b1d      	ldr	r3, [pc, #116]	; (8001b44 <USART6_IRQHandler+0xfc>)
 8001ace:	6adb      	ldr	r3, [r3, #44]	; 0x2c
 8001ad0:	4798      	blx	r3
        if(UARTs[UART6]->SR & UART_RXNE_MASK)
 8001ad2:	4b1a      	ldr	r3, [pc, #104]	; (8001b3c <USART6_IRQHandler+0xf4>)
 8001ad4:	689b      	ldr	r3, [r3, #8]
 8001ad6:	681b      	ldr	r3, [r3, #0]
 8001ad8:	f003 0320 	and.w	r3, r3, #32
 8001adc:	2b00      	cmp	r3, #0
 8001ade:	d02a      	beq.n	8001b36 <USART6_IRQHandler+0xee>
            if(RXRequests[UART6_INDEX].Buffer.CurrIdx < RXRequests[UART6_INDEX].Buffer.Length)
 8001ae0:	4b19      	ldr	r3, [pc, #100]	; (8001b48 <USART6_IRQHandler+0x100>)
 8001ae2:	8cda      	ldrh	r2, [r3, #38]	; 0x26
 8001ae4:	4b18      	ldr	r3, [pc, #96]	; (8001b48 <USART6_IRQHandler+0x100>)
 8001ae6:	8c9b      	ldrh	r3, [r3, #36]	; 0x24
 8001ae8:	429a      	cmp	r2, r3
 8001aea:	d224      	bcs.n	8001b36 <USART6_IRQHandler+0xee>
                RXRequests[UART6_INDEX].Buffer.Data[RXRequests[UART6_INDEX].Buffer.CurrIdx] = UARTs[UART6]->DR;
 8001aec:	4b13      	ldr	r3, [pc, #76]	; (8001b3c <USART6_IRQHandler+0xf4>)
 8001aee:	689b      	ldr	r3, [r3, #8]
 8001af0:	6859      	ldr	r1, [r3, #4]
 8001af2:	4b15      	ldr	r3, [pc, #84]	; (8001b48 <USART6_IRQHandler+0x100>)
 8001af4:	6a1b      	ldr	r3, [r3, #32]
 8001af6:	4a14      	ldr	r2, [pc, #80]	; (8001b48 <USART6_IRQHandler+0x100>)
 8001af8:	8cd2      	ldrh	r2, [r2, #38]	; 0x26
 8001afa:	4413      	add	r3, r2
 8001afc:	b2ca      	uxtb	r2, r1
 8001afe:	701a      	strb	r2, [r3, #0]
                RXRequests[UART6_INDEX].Buffer.CurrIdx++;
 8001b00:	4b11      	ldr	r3, [pc, #68]	; (8001b48 <USART6_IRQHandler+0x100>)
 8001b02:	8cdb      	ldrh	r3, [r3, #38]	; 0x26
 8001b04:	3301      	adds	r3, #1
 8001b06:	b29a      	uxth	r2, r3
 8001b08:	4b0f      	ldr	r3, [pc, #60]	; (8001b48 <USART6_IRQHandler+0x100>)
 8001b0a:	84da      	strh	r2, [r3, #38]	; 0x26
                if(RXRequests[UART6_INDEX].Buffer.CurrIdx == RXRequests[UART6_INDEX].Buffer.Length)
 8001b0c:	4b0e      	ldr	r3, [pc, #56]	; (8001b48 <USART6_IRQHandler+0x100>)
 8001b0e:	8cda      	ldrh	r2, [r3, #38]	; 0x26
 8001b10:	4b0d      	ldr	r3, [pc, #52]	; (8001b48 <USART6_IRQHandler+0x100>)
 8001b12:	8c9b      	ldrh	r3, [r3, #36]	; 0x24
 8001b14:	429a      	cmp	r2, r3
 8001b16:	d10e      	bne.n	8001b36 <USART6_IRQHandler+0xee>
                    RXRequests[UART6_INDEX].State = READY;
 8001b18:	4b0b      	ldr	r3, [pc, #44]	; (8001b48 <USART6_IRQHandler+0x100>)
 8001b1a:	2200      	movs	r2, #0
 8001b1c:	f883 2028 	strb.w	r2, [r3, #40]	; 0x28
                    UARTs[UART6]->CR1 &= ~UART_RXNEIE_MASK;
 8001b20:	4b06      	ldr	r3, [pc, #24]	; (8001b3c <USART6_IRQHandler+0xf4>)
 8001b22:	689b      	ldr	r3, [r3, #8]
 8001b24:	68da      	ldr	r2, [r3, #12]
 8001b26:	4b05      	ldr	r3, [pc, #20]	; (8001b3c <USART6_IRQHandler+0xf4>)
 8001b28:	689b      	ldr	r3, [r3, #8]
 8001b2a:	f022 0220 	bic.w	r2, r2, #32
 8001b2e:	60da      	str	r2, [r3, #12]
                    RXRequests[UART6_INDEX].Cb();
 8001b30:	4b05      	ldr	r3, [pc, #20]	; (8001b48 <USART6_IRQHandler+0x100>)
 8001b32:	6adb      	ldr	r3, [r3, #44]	; 0x2c
 8001b34:	4798      	blx	r3
} 
 8001b36:	bf00      	nop
 8001b38:	bd80      	pop	{r7, pc}
 8001b3a:	bf00      	nop
 8001b3c:	20000004 	.word	0x20000004
 8001b40:	20000100 	.word	0x20000100
 8001b44:	200000a0 	.word	0x200000a0
 8001b48:	200000d0 	.word	0x200000d0

08001b4c <SCHED_IncTicksPending>:
/* ============================================================================ */
/*                                  STATIC FUNCTIONS                           	*/
/* ============================================================================ */

static void SCHED_IncTicksPending(void)
{
 8001b4c:	b480      	push	{r7}
 8001b4e:	af00      	add	r7, sp, #0
    G_SchedTicksPending++;
 8001b50:	4b04      	ldr	r3, [pc, #16]	; (8001b64 <SCHED_IncTicksPending+0x18>)
 8001b52:	681b      	ldr	r3, [r3, #0]
 8001b54:	3301      	adds	r3, #1
 8001b56:	4a03      	ldr	r2, [pc, #12]	; (8001b64 <SCHED_IncTicksPending+0x18>)
 8001b58:	6013      	str	r3, [r2, #0]
}
 8001b5a:	bf00      	nop
 8001b5c:	46bd      	mov	sp, r7
 8001b5e:	f85d 7b04 	ldr.w	r7, [sp], #4
 8001b62:	4770      	bx	lr
 8001b64:	20000010 	.word	0x20000010

08001b68 <SCHED_Scheduler>:

static void SCHED_Scheduler(void)
{
 8001b68:	b580      	push	{r7, lr}
 8001b6a:	b082      	sub	sp, #8
 8001b6c:	af00      	add	r7, sp, #0
    u16 currRun;

    for(currRun =0; currRun < _NUM_RUNNABLE; currRun++)
 8001b6e:	2300      	movs	r3, #0
 8001b70:	80fb      	strh	r3, [r7, #6]
 8001b72:	e02b      	b.n	8001bcc <SCHED_Scheduler+0x64>
    {
        if( (RunnablesInfo[currRun].runnable->cb) && (RunnablesInfo[currRun].remainingTimeMs == 0) )
 8001b74:	88fb      	ldrh	r3, [r7, #6]
 8001b76:	4a19      	ldr	r2, [pc, #100]	; (8001bdc <SCHED_Scheduler+0x74>)
 8001b78:	f852 3033 	ldr.w	r3, [r2, r3, lsl #3]
 8001b7c:	691b      	ldr	r3, [r3, #16]
 8001b7e:	2b00      	cmp	r3, #0
 8001b80:	d016      	beq.n	8001bb0 <SCHED_Scheduler+0x48>
 8001b82:	88fb      	ldrh	r3, [r7, #6]
 8001b84:	4a15      	ldr	r2, [pc, #84]	; (8001bdc <SCHED_Scheduler+0x74>)
 8001b86:	00db      	lsls	r3, r3, #3
 8001b88:	4413      	add	r3, r2
 8001b8a:	685b      	ldr	r3, [r3, #4]
 8001b8c:	2b00      	cmp	r3, #0
 8001b8e:	d10f      	bne.n	8001bb0 <SCHED_Scheduler+0x48>
        {
            RunnablesInfo[currRun].runnable->cb();
 8001b90:	88fb      	ldrh	r3, [r7, #6]
 8001b92:	4a12      	ldr	r2, [pc, #72]	; (8001bdc <SCHED_Scheduler+0x74>)
 8001b94:	f852 3033 	ldr.w	r3, [r2, r3, lsl #3]
 8001b98:	691b      	ldr	r3, [r3, #16]
 8001b9a:	4798      	blx	r3
            RunnablesInfo[currRun].remainingTimeMs = RunnablesInfo[currRun].runnable->periodicityMs;
 8001b9c:	88fb      	ldrh	r3, [r7, #6]
 8001b9e:	4a0f      	ldr	r2, [pc, #60]	; (8001bdc <SCHED_Scheduler+0x74>)
 8001ba0:	f852 2033 	ldr.w	r2, [r2, r3, lsl #3]
 8001ba4:	88fb      	ldrh	r3, [r7, #6]
 8001ba6:	6852      	ldr	r2, [r2, #4]
 8001ba8:	490c      	ldr	r1, [pc, #48]	; (8001bdc <SCHED_Scheduler+0x74>)
 8001baa:	00db      	lsls	r3, r3, #3
 8001bac:	440b      	add	r3, r1
 8001bae:	605a      	str	r2, [r3, #4]
        }

        RunnablesInfo[currRun].remainingTimeMs -= SCHED_TICK_PERIOD_MS;
 8001bb0:	88fb      	ldrh	r3, [r7, #6]
 8001bb2:	4a0a      	ldr	r2, [pc, #40]	; (8001bdc <SCHED_Scheduler+0x74>)
 8001bb4:	00db      	lsls	r3, r3, #3
 8001bb6:	4413      	add	r3, r2
 8001bb8:	685a      	ldr	r2, [r3, #4]
 8001bba:	88fb      	ldrh	r3, [r7, #6]
 8001bbc:	3a02      	subs	r2, #2
 8001bbe:	4907      	ldr	r1, [pc, #28]	; (8001bdc <SCHED_Scheduler+0x74>)
 8001bc0:	00db      	lsls	r3, r3, #3
 8001bc2:	440b      	add	r3, r1
 8001bc4:	605a      	str	r2, [r3, #4]
    for(currRun =0; currRun < _NUM_RUNNABLE; currRun++)
 8001bc6:	88fb      	ldrh	r3, [r7, #6]
 8001bc8:	3301      	adds	r3, #1
 8001bca:	80fb      	strh	r3, [r7, #6]
 8001bcc:	88fb      	ldrh	r3, [r7, #6]
 8001bce:	2b03      	cmp	r3, #3
 8001bd0:	d9d0      	bls.n	8001b74 <SCHED_Scheduler+0xc>
    }
}
 8001bd2:	bf00      	nop
 8001bd4:	bf00      	nop
 8001bd6:	3708      	adds	r7, #8
 8001bd8:	46bd      	mov	sp, r7
 8001bda:	bd80      	pop	{r7, pc}
 8001bdc:	2000010c 	.word	0x2000010c

08001be0 <SCHED_Init>:
/*                                  IMPLEMENTATION                           	*/
/* ============================================================================ */


void SCHED_Init(void)
{
 8001be0:	b580      	push	{r7, lr}
 8001be2:	b082      	sub	sp, #8
 8001be4:	af00      	add	r7, sp, #0
    u16 currRun;

    for(currRun = 0; currRun < _NUM_RUNNABLE; currRun++)
 8001be6:	2300      	movs	r3, #0
 8001be8:	80fb      	strh	r3, [r7, #6]
 8001bea:	e017      	b.n	8001c1c <SCHED_Init+0x3c>
    {
        RunnablesInfo[currRun].runnable = &Runnables[currRun];
 8001bec:	88fa      	ldrh	r2, [r7, #6]
 8001bee:	88f9      	ldrh	r1, [r7, #6]
 8001bf0:	4613      	mov	r3, r2
 8001bf2:	009b      	lsls	r3, r3, #2
 8001bf4:	4413      	add	r3, r2
 8001bf6:	009b      	lsls	r3, r3, #2
 8001bf8:	4a0f      	ldr	r2, [pc, #60]	; (8001c38 <SCHED_Init+0x58>)
 8001bfa:	4413      	add	r3, r2
 8001bfc:	4a0f      	ldr	r2, [pc, #60]	; (8001c3c <SCHED_Init+0x5c>)
 8001bfe:	f842 3031 	str.w	r3, [r2, r1, lsl #3]
        RunnablesInfo[currRun].remainingTimeMs = RunnablesInfo[currRun].runnable->delayMs;
 8001c02:	88fb      	ldrh	r3, [r7, #6]
 8001c04:	4a0d      	ldr	r2, [pc, #52]	; (8001c3c <SCHED_Init+0x5c>)
 8001c06:	f852 2033 	ldr.w	r2, [r2, r3, lsl #3]
 8001c0a:	88fb      	ldrh	r3, [r7, #6]
 8001c0c:	68d2      	ldr	r2, [r2, #12]
 8001c0e:	490b      	ldr	r1, [pc, #44]	; (8001c3c <SCHED_Init+0x5c>)
 8001c10:	00db      	lsls	r3, r3, #3
 8001c12:	440b      	add	r3, r1
 8001c14:	605a      	str	r2, [r3, #4]
    for(currRun = 0; currRun < _NUM_RUNNABLE; currRun++)
 8001c16:	88fb      	ldrh	r3, [r7, #6]
 8001c18:	3301      	adds	r3, #1
 8001c1a:	80fb      	strh	r3, [r7, #6]
 8001c1c:	88fb      	ldrh	r3, [r7, #6]
 8001c1e:	2b03      	cmp	r3, #3
 8001c20:	d9e4      	bls.n	8001bec <SCHED_Init+0xc>
    }

    SYSTICK_SetTimeMs(SCHED_TICK_PERIOD_MS);
 8001c22:	2002      	movs	r0, #2
 8001c24:	f7ff fbfe 	bl	8001424 <SYSTICK_SetTimeMs>
    SYSTICK_SetCallback(SCHED_IncTicksPending);
 8001c28:	4805      	ldr	r0, [pc, #20]	; (8001c40 <SCHED_Init+0x60>)
 8001c2a:	f7ff fc57 	bl	80014dc <SYSTICK_SetCallback>
}
 8001c2e:	bf00      	nop
 8001c30:	3708      	adds	r7, #8
 8001c32:	46bd      	mov	sp, r7
 8001c34:	bd80      	pop	{r7, pc}
 8001c36:	bf00      	nop
 8001c38:	20000014 	.word	0x20000014
 8001c3c:	2000010c 	.word	0x2000010c
 8001c40:	08001b4d 	.word	0x08001b4d

08001c44 <SCHED_Start>:

void SCHED_Start(void)
{
 8001c44:	b580      	push	{r7, lr}
 8001c46:	af00      	add	r7, sp, #0
    SYSTICK_Start(SYSTICK_MODE_PERIODIC);
 8001c48:	2002      	movs	r0, #2
 8001c4a:	f7ff fc19 	bl	8001480 <SYSTICK_Start>

    while(1)
    {
        if(G_SchedTicksPending != 0)
 8001c4e:	4b06      	ldr	r3, [pc, #24]	; (8001c68 <SCHED_Start+0x24>)
 8001c50:	681b      	ldr	r3, [r3, #0]
 8001c52:	2b00      	cmp	r3, #0
 8001c54:	d0fb      	beq.n	8001c4e <SCHED_Start+0xa>
        {
            G_SchedTicksPending--;
 8001c56:	4b04      	ldr	r3, [pc, #16]	; (8001c68 <SCHED_Start+0x24>)
 8001c58:	681b      	ldr	r3, [r3, #0]
 8001c5a:	3b01      	subs	r3, #1
 8001c5c:	4a02      	ldr	r2, [pc, #8]	; (8001c68 <SCHED_Start+0x24>)
 8001c5e:	6013      	str	r3, [r2, #0]
            SCHED_Scheduler();
 8001c60:	f7ff ff82 	bl	8001b68 <SCHED_Scheduler>
        if(G_SchedTicksPending != 0)
 8001c64:	e7f3      	b.n	8001c4e <SCHED_Start+0xa>
 8001c66:	bf00      	nop
 8001c68:	20000010 	.word	0x20000010

08001c6c <Reset_Handler>:
 8001c6c:	480d      	ldr	r0, [pc, #52]	; (8001ca4 <LoopForever+0x2>)
 8001c6e:	4685      	mov	sp, r0
 8001c70:	f3af 8000 	nop.w
 8001c74:	480c      	ldr	r0, [pc, #48]	; (8001ca8 <LoopForever+0x6>)
 8001c76:	490d      	ldr	r1, [pc, #52]	; (8001cac <LoopForever+0xa>)
 8001c78:	4a0d      	ldr	r2, [pc, #52]	; (8001cb0 <LoopForever+0xe>)
 8001c7a:	2300      	movs	r3, #0
 8001c7c:	e002      	b.n	8001c84 <LoopCopyDataInit>

08001c7e <CopyDataInit>:
 8001c7e:	58d4      	ldr	r4, [r2, r3]
 8001c80:	50c4      	str	r4, [r0, r3]
 8001c82:	3304      	adds	r3, #4

08001c84 <LoopCopyDataInit>:
 8001c84:	18c4      	adds	r4, r0, r3
 8001c86:	428c      	cmp	r4, r1
 8001c88:	d3f9      	bcc.n	8001c7e <CopyDataInit>
 8001c8a:	4a0a      	ldr	r2, [pc, #40]	; (8001cb4 <LoopForever+0x12>)
 8001c8c:	4c0a      	ldr	r4, [pc, #40]	; (8001cb8 <LoopForever+0x16>)
 8001c8e:	2300      	movs	r3, #0
 8001c90:	e001      	b.n	8001c96 <LoopFillZerobss>

08001c92 <FillZerobss>:
 8001c92:	6013      	str	r3, [r2, #0]
 8001c94:	3204      	adds	r2, #4

08001c96 <LoopFillZerobss>:
 8001c96:	42a2      	cmp	r2, r4
 8001c98:	d3fb      	bcc.n	8001c92 <FillZerobss>
 8001c9a:	f000 f811 	bl	8001cc0 <__libc_init_array>
 8001c9e:	f7fe fc33 	bl	8000508 <main>

08001ca2 <LoopForever>:
 8001ca2:	e7fe      	b.n	8001ca2 <LoopForever>
 8001ca4:	20010000 	.word	0x20010000
 8001ca8:	20000000 	.word	0x20000000
 8001cac:	20000064 	.word	0x20000064
 8001cb0:	08001d84 	.word	0x08001d84
 8001cb4:	20000064 	.word	0x20000064
 8001cb8:	2000012c 	.word	0x2000012c

08001cbc <ADC_IRQHandler>:
 8001cbc:	e7fe      	b.n	8001cbc <ADC_IRQHandler>
	...

08001cc0 <__libc_init_array>:
 8001cc0:	b570      	push	{r4, r5, r6, lr}
 8001cc2:	4d0d      	ldr	r5, [pc, #52]	; (8001cf8 <__libc_init_array+0x38>)
 8001cc4:	4c0d      	ldr	r4, [pc, #52]	; (8001cfc <__libc_init_array+0x3c>)
 8001cc6:	1b64      	subs	r4, r4, r5
 8001cc8:	10a4      	asrs	r4, r4, #2
 8001cca:	2600      	movs	r6, #0
 8001ccc:	42a6      	cmp	r6, r4
 8001cce:	d109      	bne.n	8001ce4 <__libc_init_array+0x24>
 8001cd0:	4d0b      	ldr	r5, [pc, #44]	; (8001d00 <__libc_init_array+0x40>)
 8001cd2:	4c0c      	ldr	r4, [pc, #48]	; (8001d04 <__libc_init_array+0x44>)
 8001cd4:	f000 f818 	bl	8001d08 <_init>
 8001cd8:	1b64      	subs	r4, r4, r5
 8001cda:	10a4      	asrs	r4, r4, #2
 8001cdc:	2600      	movs	r6, #0
 8001cde:	42a6      	cmp	r6, r4
 8001ce0:	d105      	bne.n	8001cee <__libc_init_array+0x2e>
 8001ce2:	bd70      	pop	{r4, r5, r6, pc}
 8001ce4:	f855 3b04 	ldr.w	r3, [r5], #4
 8001ce8:	4798      	blx	r3
 8001cea:	3601      	adds	r6, #1
 8001cec:	e7ee      	b.n	8001ccc <__libc_init_array+0xc>
 8001cee:	f855 3b04 	ldr.w	r3, [r5], #4
 8001cf2:	4798      	blx	r3
 8001cf4:	3601      	adds	r6, #1
 8001cf6:	e7f2      	b.n	8001cde <__libc_init_array+0x1e>
 8001cf8:	08001d7c 	.word	0x08001d7c
 8001cfc:	08001d7c 	.word	0x08001d7c
 8001d00:	08001d7c 	.word	0x08001d7c
 8001d04:	08001d80 	.word	0x08001d80

08001d08 <_init>:
 8001d08:	b5f8      	push	{r3, r4, r5, r6, r7, lr}
 8001d0a:	bf00      	nop
 8001d0c:	bcf8      	pop	{r3, r4, r5, r6, r7}
 8001d0e:	bc08      	pop	{r3}
 8001d10:	469e      	mov	lr, r3
 8001d12:	4770      	bx	lr

08001d14 <_fini>:
 8001d14:	b5f8      	push	{r3, r4, r5, r6, r7, lr}
 8001d16:	bf00      	nop
 8001d18:	bcf8      	pop	{r3, r4, r5, r6, r7}
 8001d1a:	bc08      	pop	{r3}
 8001d1c:	469e      	mov	lr, r3
 8001d1e:	4770      	bx	lr
